; ModuleID = '/proj/xhdhdstaff2/kalib/sprite_makefile_dev/apps/cpp/getting_started/dependence_inter/emu/_sds/vhls/mean_value_accel/solution/.autopilot/db/a.o.bc'
target datalayout = "e-p:32:32:32-i1:8:8-i8:8:8-i16:16:16-i32:32:32-i64:32:64-f32:32:32-f64:32:64-v64:64:64-v128:128:128-a0:0:64-f80:32:32-n8:16:32-S128"
target triple = "i386-unknown-linux-gnu"

%"struct.std::piecewise_construct_t" = type {}
%"class.std::locale::id" = type { i32 }
%"class.std::basic_istream" = type { i32 (...)**, i32, %"class.std::basic_ios" }
%"class.std::basic_ios" = type { %"class.std::ios_base", %"class.std::basic_ostream"*, i8, i1, %"class.std::basic_streambuf"*, %"class.std::ctype"*, %"class.std::num_put"*, %"class.std::num_get"* }
%"class.std::ios_base" = type { i32 (...)**, i32, i32, i17, i17, i17, %"struct.std::ios_base::_Callback_list"*, %"struct.std::ios_base::_Words", [8 x %"struct.std::ios_base::_Words"], i32, %"struct.std::ios_base::_Words"*, %"class.std::locale" }
%"struct.std::ios_base::_Callback_list" = type { %"struct.std::ios_base::_Callback_list"*, void (i2, %"class.std::ios_base"*, i32)*, i32, i32 }
%"struct.std::ios_base::_Words" = type { i8*, i32 }
%"class.std::locale" = type { %"class.std::locale::_Impl"* }
%"class.std::locale::_Impl" = type { i32, %"class.std::locale::facet"**, i32, %"class.std::locale::facet"**, i8** }
%"class.std::locale::facet" = type { i32 (...)**, i32 }
%"class.std::basic_ostream" = type { i32 (...)**, %"class.std::basic_ios" }
%"class.std::basic_streambuf" = type { i32 (...)**, i8*, i8*, i8*, i8*, i8*, i8*, %"class.std::locale" }
%"class.std::ctype" = type { %"class.std::locale::facet", %struct.__locale_struct*, i1, i32*, i32*, i16*, i8, [256 x i8], [256 x i8], i8 }
%struct.__locale_struct = type { [13 x %"struct.std::piecewise_construct_t"*], i16*, i32*, i32*, [13 x i8*] }
%"class.std::num_put" = type { %"class.std::locale::facet" }
%"class.std::num_get" = type { %"class.std::locale::facet" }
%"class.std::basic_istream.0" = type { i32 (...)**, i32, %"class.std::basic_ios.2" }
%"class.std::basic_ios.2" = type { %"class.std::ios_base", %"class.std::basic_ostream.3"*, i32, i1, %"class.std::basic_streambuf.4"*, %"class.std::ctype.5"*, %"class.std::num_put.6"*, %"class.std::num_get.7"* }
%"class.std::basic_ostream.3" = type { i32 (...)**, %"class.std::basic_ios.2" }
%"class.std::basic_streambuf.4" = type { i32 (...)**, i32*, i32*, i32*, i32*, i32*, i32*, %"class.std::locale" }
%"class.std::ctype.5" = type { %"class.std::__ctype_abstract_base", %struct.__locale_struct*, i1, [128 x i8], [256 x i32], [16 x i16], [16 x i32] }
%"class.std::__ctype_abstract_base" = type { %"class.std::locale::facet" }
%"class.std::num_put.6" = type { %"class.std::locale::facet" }
%"class.std::num_get.7" = type { %"class.std::locale::facet" }

@_ZStL19piecewise_construct = internal constant %"struct.std::piecewise_construct_t" zeroinitializer, align 1 ; [#uses=0 type=%"struct.std::piecewise_construct_t"*]
@_ZStL13allocator_arg = internal constant %"struct.std::piecewise_construct_t" zeroinitializer, align 1 ; [#uses=0 type=%"struct.std::piecewise_construct_t"*]
@_ZStL8__ioinit = internal global %"struct.std::piecewise_construct_t" zeroinitializer, align 1 ; [#uses=2 type=%"struct.std::piecewise_construct_t"*]
@.str = private unnamed_addr constant [1 x i8] zeroinitializer, align 1 ; [#uses=1 type=[1 x i8]*]
@.str1 = private unnamed_addr constant [6 x i8] c"m_axi\00", align 1 ; [#uses=1 type=[6 x i8]*]
@.str2 = private unnamed_addr constant [3 x i8] c"in\00", align 1 ; [#uses=1 type=[3 x i8]*]
@.str3 = private unnamed_addr constant [7 x i8] c"direct\00", align 1 ; [#uses=1 type=[7 x i8]*]
@.str4 = private unnamed_addr constant [4 x i8] c"out\00", align 1 ; [#uses=1 type=[4 x i8]*]
@.str5 = private unnamed_addr constant [11 x i8] c"input_read\00", align 1 ; [#uses=1 type=[11 x i8]*]
@.str6 = private unnamed_addr constant [8 x i8] c"calc_mv\00", align 1 ; [#uses=1 type=[8 x i8]*]
@.str7 = private unnamed_addr constant [13 x i8] c"output_write\00", align 1 ; [#uses=1 type=[13 x i8]*]
@signgam = external global i32                    ; [#uses=0 type=i32*]
@_ZN9__gnu_cxx24__numeric_traits_integer8__digitsE = external constant i32 ; [#uses=0 type=i32*]
@_ZN9__gnu_cxx25__numeric_traits_floating14__max_digits10E = external constant i32 ; [#uses=0 type=i32*]
@_ZN9__gnu_cxx25__numeric_traits_floating10__digits10E = external constant i32 ; [#uses=0 type=i32*]
@_ZN9__gnu_cxx25__numeric_traits_floating16__max_exponent10E = external constant i32 ; [#uses=0 type=i32*]
@__daylight = external global i32                 ; [#uses=0 type=i32*]
@daylight = external global i32                   ; [#uses=0 type=i32*]
@getdate_err = external global i32                ; [#uses=0 type=i32*]
@optarg = external global i8*                     ; [#uses=0 type=i8**]
@optind = external global i32                     ; [#uses=0 type=i32*]
@opterr = external global i32                     ; [#uses=0 type=i32*]
@optopt = external global i32                     ; [#uses=0 type=i32*]
@_ZSt7nothrow = external global %"struct.std::piecewise_construct_t" ; [#uses=0 type=%"struct.std::piecewise_construct_t"*]
@_IO_2_1_stdin_ = external global %"struct.std::piecewise_construct_t" ; [#uses=0 type=%"struct.std::piecewise_construct_t"*]
@_IO_2_1_stdout_ = external global %"struct.std::piecewise_construct_t" ; [#uses=0 type=%"struct.std::piecewise_construct_t"*]
@_IO_2_1_stderr_ = external global %"struct.std::piecewise_construct_t" ; [#uses=0 type=%"struct.std::piecewise_construct_t"*]
@sys_nerr = external global i32                   ; [#uses=0 type=i32*]
@_sys_nerr = external global i32                  ; [#uses=0 type=i32*]
@program_invocation_name = external global i8*    ; [#uses=0 type=i8**]
@program_invocation_short_name = external global i8* ; [#uses=0 type=i8**]
@_ZNSt6locale7_S_onceE = external global i32      ; [#uses=0 type=i32*]
@_ZNSt6locale5facet7_S_onceE = external global i32 ; [#uses=0 type=i32*]
@_ZNSt6locale2id11_S_refcountE = external global i32 ; [#uses=0 type=i32*]
@_ZNSt7collate2idE = external global %"class.std::locale::id" ; [#uses=0 type=%"class.std::locale::id"*]
@_ZNSt8ios_base4Init11_S_refcountE = external global i32 ; [#uses=0 type=i32*]
@_ZNSt5ctype2idE = external global %"class.std::locale::id" ; [#uses=0 type=%"class.std::locale::id"*]
@_ZNSt5ctypeIcE2idE = external global %"class.std::locale::id" ; [#uses=0 type=%"class.std::locale::id"*]
@_ZNSt5ctypeIwE2idE = external global %"class.std::locale::id" ; [#uses=0 type=%"class.std::locale::id"*]
@_ZNSt10__num_base12_S_atoms_outE = external global i8* ; [#uses=0 type=i8**]
@_ZNSt10__num_base11_S_atoms_inE = external global i8* ; [#uses=0 type=i8**]
@_ZNSt8numpunct2idE = external global %"class.std::locale::id" ; [#uses=0 type=%"class.std::locale::id"*]
@_ZNSt7num_get2idE = external global %"class.std::locale::id" ; [#uses=0 type=%"class.std::locale::id"*]
@_ZNSt7num_put2idE = external global %"class.std::locale::id" ; [#uses=0 type=%"class.std::locale::id"*]
@_ZSt3cin = external global %"class.std::basic_istream" ; [#uses=0 type=%"class.std::basic_istream"*]
@_ZSt4cout = external global %"class.std::basic_ostream" ; [#uses=0 type=%"class.std::basic_ostream"*]
@_ZSt4cerr = external global %"class.std::basic_ostream" ; [#uses=0 type=%"class.std::basic_ostream"*]
@_ZSt4clog = external global %"class.std::basic_ostream" ; [#uses=0 type=%"class.std::basic_ostream"*]
@_ZSt4wcin = external global %"class.std::basic_istream.0" ; [#uses=0 type=%"class.std::basic_istream.0"*]
@_ZSt5wcout = external global %"class.std::basic_ostream.3" ; [#uses=0 type=%"class.std::basic_ostream.3"*]
@_ZSt5wcerr = external global %"class.std::basic_ostream.3" ; [#uses=0 type=%"class.std::basic_ostream.3"*]
@_ZSt5wclog = external global %"class.std::basic_ostream.3" ; [#uses=0 type=%"class.std::basic_ostream.3"*]
@llvm.global_ctors = appending global [1 x { i32, void ()* }] [{ i32, void ()* } { i32 65535, void ()* @_GLOBAL__I_a }] ; [#uses=0 type=[1 x { i32, void ()* }]*]

; [#uses=1]
define internal void @__cxx_global_var_init() nounwind section ".text.startup" {
  call void @_ZNSt8ios_base4InitC1Ev(%"struct.std::piecewise_construct_t"* @_ZStL8__ioinit)
  %1 = call i32 @atexit(void ()* @__dtor__ZStL8__ioinit) ; [#uses=0 type=i32]
  ret void
}

; [#uses=1]
declare void @_ZNSt8ios_base4InitC1Ev(%"struct.std::piecewise_construct_t"*)

; [#uses=1]
declare void @_ZNSt8ios_base4InitD1Ev(%"struct.std::piecewise_construct_t"*) nounwind

; [#uses=1]
define internal void @__dtor__ZStL8__ioinit() nounwind section ".text.startup" {
  call void @_ZNSt8ios_base4InitD1Ev(%"struct.std::piecewise_construct_t"* @_ZStL8__ioinit)
  ret void
}

; [#uses=1]
declare i32 @atexit(void ()*) nounwind

; [#uses=0]
define void @_Z16mean_value_accelPiS_i(i32* %in, i32* %out, i32 %size) nounwind {
  %1 = alloca i32*, align 4                       ; [#uses=3 type=i32**]
  %2 = alloca i32*, align 4                       ; [#uses=3 type=i32**]
  %3 = alloca i32, align 4                        ; [#uses=7 type=i32*]
  %local_buffer = alloca [2048 x i32], align 4    ; [#uses=13 type=[2048 x i32]*]
  %i = alloca i32, align 4                        ; [#uses=6 type=i32*]
  %i1 = alloca i32, align 4                       ; [#uses=8 type=i32*]
  %i2 = alloca i32, align 4                       ; [#uses=6 type=i32*]
  store i32* %in, i32** %1, align 4
  call void @llvm.dbg.declare(metadata !{i32** %1}, metadata !2713), !dbg !2714 ; [debug line = 56:28] [debug variable = in]
  store i32* %out, i32** %2, align 4
  call void @llvm.dbg.declare(metadata !{i32** %2}, metadata !2715), !dbg !2716 ; [debug line = 56:37] [debug variable = out]
  store i32 %size, i32* %3, align 4
  call void @llvm.dbg.declare(metadata !{i32* %3}, metadata !2717), !dbg !2718 ; [debug line = 56:46] [debug variable = size]
  call void (...)* @_ssdm_op_SpecLatency(i32 1, i32 65535, i8* getelementptr inbounds ([1 x i8]* @.str, i32 0, i32 0)) nounwind, !dbg !2719 ; [debug line = 58:1]
  %4 = load i32** %1, align 4, !dbg !2719         ; [#uses=1 type=i32*] [debug line = 58:1]
  call void (...)* @_ssdm_op_SpecInterface(i32* %4, i8* getelementptr inbounds ([6 x i8]* @.str1, i32 0, i32 0), i32 0, i32 0, i8* getelementptr inbounds ([1 x i8]* @.str, i32 0, i32 0), i32 0, i32 0, i8* getelementptr inbounds ([3 x i8]* @.str2, i32 0, i32 0), i8* getelementptr inbounds ([7 x i8]* @.str3, i32 0, i32 0), i8* getelementptr inbounds ([1 x i8]* @.str, i32 0, i32 0), i32 16, i32 16, i32 16, i32 16, i8* getelementptr inbounds ([1 x i8]* @.str, i32 0, i32 0), i8* getelementptr inbounds ([1 x i8]* @.str, i32 0, i32 0)) nounwind, !dbg !2719 ; [debug line = 58:1]
  %5 = load i32** %2, align 4, !dbg !2719         ; [#uses=1 type=i32*] [debug line = 58:1]
  call void (...)* @_ssdm_op_SpecInterface(i32* %5, i8* getelementptr inbounds ([6 x i8]* @.str1, i32 0, i32 0), i32 0, i32 0, i8* getelementptr inbounds ([1 x i8]* @.str, i32 0, i32 0), i32 0, i32 0, i8* getelementptr inbounds ([4 x i8]* @.str4, i32 0, i32 0), i8* getelementptr inbounds ([7 x i8]* @.str3, i32 0, i32 0), i8* getelementptr inbounds ([1 x i8]* @.str, i32 0, i32 0), i32 16, i32 16, i32 16, i32 16, i8* getelementptr inbounds ([1 x i8]* @.str, i32 0, i32 0), i8* getelementptr inbounds ([1 x i8]* @.str, i32 0, i32 0)) nounwind, !dbg !2719 ; [debug line = 58:1]
  call void @llvm.dbg.declare(metadata !{[2048 x i32]* %local_buffer}, metadata !2721), !dbg !2725 ; [debug line = 59:9] [debug variable = local_buffer]
  br label %6, !dbg !2726                         ; [debug line = 59:31]

; <label>:6                                       ; preds = %0
  call void @llvm.dbg.declare(metadata !{i32* %i}, metadata !2727), !dbg !2729 ; [debug line = 62:25] [debug variable = i]
  store i32 0, i32* %i, align 4, !dbg !2730       ; [debug line = 62:31]
  br label %7, !dbg !2730                         ; [debug line = 62:31]

; <label>:7                                       ; preds = %18, %6
  %8 = load i32* %i, align 4, !dbg !2730          ; [#uses=1 type=i32] [debug line = 62:31]
  %9 = load i32* %3, align 4, !dbg !2730          ; [#uses=1 type=i32] [debug line = 62:31]
  %10 = icmp slt i32 %8, %9, !dbg !2730           ; [#uses=1 type=i1] [debug line = 62:31]
  br i1 %10, label %11, label %21, !dbg !2730     ; [debug line = 62:31]

; <label>:11                                      ; preds = %7
  call void (...)* @_ssdm_op_SpecLoopName(i8* getelementptr inbounds ([11 x i8]* @.str5, i32 0, i32 0)) nounwind, !dbg !2731 ; [debug line = 62:49]
  call void (...)* @_ssdm_RegionBegin(i8* getelementptr inbounds ([11 x i8]* @.str5, i32 0, i32 0)) nounwind, !dbg !2731 ; [debug line = 62:49]
  call void (...)* @_ssdm_op_SpecPipeline(i32 -1, i32 1, i32 1, i32 0, i8* getelementptr inbounds ([1 x i8]* @.str, i32 0, i32 0)) nounwind, !dbg !2733 ; [debug line = 63:1]
  call void (...)* @_ssdm_op_SpecLoopTripCount(i32 256, i32 256, i32 256, i8* getelementptr inbounds ([1 x i8]* @.str, i32 0, i32 0)) nounwind, !dbg !2734 ; [debug line = 64:1]
  %12 = load i32* %i, align 4, !dbg !2735         ; [#uses=1 type=i32] [debug line = 65:2]
  %13 = load i32** %1, align 4, !dbg !2735        ; [#uses=1 type=i32*] [debug line = 65:2]
  %14 = getelementptr inbounds i32* %13, i32 %12, !dbg !2735 ; [#uses=1 type=i32*] [debug line = 65:2]
  %15 = load i32* %14, align 4, !dbg !2735        ; [#uses=1 type=i32] [debug line = 65:2]
  %16 = load i32* %i, align 4, !dbg !2735         ; [#uses=1 type=i32] [debug line = 65:2]
  %17 = getelementptr inbounds [2048 x i32]* %local_buffer, i32 0, i32 %16, !dbg !2735 ; [#uses=1 type=i32*] [debug line = 65:2]
  store i32 %15, i32* %17, align 4, !dbg !2735    ; [debug line = 65:2]
  call void (...)* @_ssdm_RegionEnd(i8* getelementptr inbounds ([11 x i8]* @.str5, i32 0, i32 0)) nounwind, !dbg !2736 ; [debug line = 66:5]
  br label %18, !dbg !2736                        ; [debug line = 66:5]

; <label>:18                                      ; preds = %11
  %19 = load i32* %i, align 4, !dbg !2737         ; [#uses=1 type=i32] [debug line = 62:44]
  %20 = add nsw i32 %19, 1, !dbg !2737            ; [#uses=1 type=i32] [debug line = 62:44]
  store i32 %20, i32* %i, align 4, !dbg !2737     ; [debug line = 62:44]
  br label %7, !dbg !2737                         ; [debug line = 62:44]

; <label>:21                                      ; preds = %7
  br label %22, !dbg !2738                        ; [debug line = 66:5]

; <label>:22                                      ; preds = %21
  call void @llvm.dbg.declare(metadata !{i32* %i1}, metadata !2739), !dbg !2741 ; [debug line = 69:22] [debug variable = i]
  store i32 1, i32* %i1, align 4, !dbg !2742      ; [debug line = 69:28]
  br label %23, !dbg !2742                        ; [debug line = 69:28]

; <label>:23                                      ; preds = %47, %22
  %24 = load i32* %i1, align 4, !dbg !2742        ; [#uses=1 type=i32] [debug line = 69:28]
  %25 = load i32* %3, align 4, !dbg !2742         ; [#uses=1 type=i32] [debug line = 69:28]
  %26 = sub nsw i32 %25, 1, !dbg !2742            ; [#uses=1 type=i32] [debug line = 69:28]
  %27 = icmp slt i32 %24, %26, !dbg !2742         ; [#uses=1 type=i1] [debug line = 69:28]
  br i1 %27, label %28, label %50, !dbg !2742     ; [debug line = 69:28]

; <label>:28                                      ; preds = %23
  call void (...)* @_ssdm_op_SpecLoopName(i8* getelementptr inbounds ([8 x i8]* @.str6, i32 0, i32 0)) nounwind, !dbg !2743 ; [debug line = 69:50]
  call void (...)* @_ssdm_RegionBegin(i8* getelementptr inbounds ([8 x i8]* @.str6, i32 0, i32 0)) nounwind, !dbg !2743 ; [debug line = 69:50]
  call void (...)* @_ssdm_op_SpecLoopTripCount(i32 254, i32 254, i32 254, i8* getelementptr inbounds ([1 x i8]* @.str, i32 0, i32 0)) nounwind, !dbg !2745 ; [debug line = 70:1]
  %29 = getelementptr inbounds [2048 x i32]* %local_buffer, i32 0, i32 0, !dbg !2746 ; [#uses=1 type=i32*] [debug line = 71:1]
  call void (...)* @_ssdm_SpecDependence(i32* %29, i32 0, i32 0, i32 -1, i32 0, i32 1) nounwind, !dbg !2746 ; [debug line = 71:1]
  %30 = load i32* %i1, align 4, !dbg !2747        ; [#uses=1 type=i32] [debug line = 83:9]
  %31 = sub nsw i32 %30, 1, !dbg !2747            ; [#uses=1 type=i32] [debug line = 83:9]
  %32 = getelementptr inbounds [2048 x i32]* %local_buffer, i32 0, i32 %31, !dbg !2747 ; [#uses=1 type=i32*] [debug line = 83:9]
  %33 = load i32* %32, align 4, !dbg !2747        ; [#uses=1 type=i32] [debug line = 83:9]
  %34 = load i32* %i1, align 4, !dbg !2747        ; [#uses=1 type=i32] [debug line = 83:9]
  %35 = getelementptr inbounds [2048 x i32]* %local_buffer, i32 0, i32 %34, !dbg !2747 ; [#uses=1 type=i32*] [debug line = 83:9]
  %36 = load i32* %35, align 4, !dbg !2747        ; [#uses=1 type=i32] [debug line = 83:9]
  %37 = add nsw i32 %33, %36, !dbg !2747          ; [#uses=1 type=i32] [debug line = 83:9]
  %38 = load i32* %i1, align 4, !dbg !2747        ; [#uses=1 type=i32] [debug line = 83:9]
  %39 = add nsw i32 %38, 1, !dbg !2747            ; [#uses=1 type=i32] [debug line = 83:9]
  %40 = getelementptr inbounds [2048 x i32]* %local_buffer, i32 0, i32 %39, !dbg !2747 ; [#uses=1 type=i32*] [debug line = 83:9]
  %41 = load i32* %40, align 4, !dbg !2747        ; [#uses=1 type=i32] [debug line = 83:9]
  %42 = add nsw i32 %37, %41, !dbg !2747          ; [#uses=1 type=i32] [debug line = 83:9]
  %43 = sdiv i32 %42, 3, !dbg !2747               ; [#uses=1 type=i32] [debug line = 83:9]
  %44 = load i32* %i1, align 4, !dbg !2747        ; [#uses=1 type=i32] [debug line = 83:9]
  %45 = add nsw i32 %44, 1024, !dbg !2747         ; [#uses=1 type=i32] [debug line = 83:9]
  %46 = getelementptr inbounds [2048 x i32]* %local_buffer, i32 0, i32 %45, !dbg !2747 ; [#uses=1 type=i32*] [debug line = 83:9]
  store i32 %43, i32* %46, align 4, !dbg !2747    ; [debug line = 83:9]
  call void (...)* @_ssdm_RegionEnd(i8* getelementptr inbounds ([8 x i8]* @.str6, i32 0, i32 0)) nounwind, !dbg !2748 ; [debug line = 85:5]
  br label %47, !dbg !2748                        ; [debug line = 85:5]

; <label>:47                                      ; preds = %28
  %48 = load i32* %i1, align 4, !dbg !2749        ; [#uses=1 type=i32] [debug line = 69:44]
  %49 = add nsw i32 %48, 1, !dbg !2749            ; [#uses=1 type=i32] [debug line = 69:44]
  store i32 %49, i32* %i1, align 4, !dbg !2749    ; [debug line = 69:44]
  br label %23, !dbg !2749                        ; [debug line = 69:44]

; <label>:50                                      ; preds = %23
  %51 = getelementptr inbounds [2048 x i32]* %local_buffer, i32 0, i32 0, !dbg !2750 ; [#uses=1 type=i32*] [debug line = 88:5]
  %52 = load i32* %51, align 4, !dbg !2750        ; [#uses=1 type=i32] [debug line = 88:5]
  %53 = getelementptr inbounds [2048 x i32]* %local_buffer, i32 0, i32 1, !dbg !2750 ; [#uses=1 type=i32*] [debug line = 88:5]
  %54 = load i32* %53, align 4, !dbg !2750        ; [#uses=1 type=i32] [debug line = 88:5]
  %55 = add nsw i32 %52, %54, !dbg !2750          ; [#uses=1 type=i32] [debug line = 88:5]
  %56 = sdiv i32 %55, 2, !dbg !2750               ; [#uses=1 type=i32] [debug line = 88:5]
  %57 = getelementptr inbounds [2048 x i32]* %local_buffer, i32 0, i32 1024, !dbg !2750 ; [#uses=1 type=i32*] [debug line = 88:5]
  store i32 %56, i32* %57, align 4, !dbg !2750    ; [debug line = 88:5]
  %58 = load i32* %3, align 4, !dbg !2751         ; [#uses=1 type=i32] [debug line = 89:5]
  %59 = sub nsw i32 %58, 1, !dbg !2751            ; [#uses=1 type=i32] [debug line = 89:5]
  %60 = getelementptr inbounds [2048 x i32]* %local_buffer, i32 0, i32 %59, !dbg !2751 ; [#uses=1 type=i32*] [debug line = 89:5]
  %61 = load i32* %60, align 4, !dbg !2751        ; [#uses=1 type=i32] [debug line = 89:5]
  %62 = load i32* %3, align 4, !dbg !2751         ; [#uses=1 type=i32] [debug line = 89:5]
  %63 = sub nsw i32 %62, 2, !dbg !2751            ; [#uses=1 type=i32] [debug line = 89:5]
  %64 = getelementptr inbounds [2048 x i32]* %local_buffer, i32 0, i32 %63, !dbg !2751 ; [#uses=1 type=i32*] [debug line = 89:5]
  %65 = load i32* %64, align 4, !dbg !2751        ; [#uses=1 type=i32] [debug line = 89:5]
  %66 = add nsw i32 %61, %65, !dbg !2751          ; [#uses=1 type=i32] [debug line = 89:5]
  %67 = sdiv i32 %66, 2, !dbg !2751               ; [#uses=1 type=i32] [debug line = 89:5]
  %68 = load i32* %3, align 4, !dbg !2751         ; [#uses=1 type=i32] [debug line = 89:5]
  %69 = add nsw i32 1024, %68, !dbg !2751         ; [#uses=1 type=i32] [debug line = 89:5]
  %70 = sub nsw i32 %69, 1, !dbg !2751            ; [#uses=1 type=i32] [debug line = 89:5]
  %71 = getelementptr inbounds [2048 x i32]* %local_buffer, i32 0, i32 %70, !dbg !2751 ; [#uses=1 type=i32*] [debug line = 89:5]
  store i32 %67, i32* %71, align 4, !dbg !2751    ; [debug line = 89:5]
  br label %72, !dbg !2751                        ; [debug line = 89:5]

; <label>:72                                      ; preds = %50
  call void @llvm.dbg.declare(metadata !{i32* %i2}, metadata !2752), !dbg !2754 ; [debug line = 93:27] [debug variable = i]
  store i32 0, i32* %i2, align 4, !dbg !2755      ; [debug line = 93:33]
  br label %73, !dbg !2755                        ; [debug line = 93:33]

; <label>:73                                      ; preds = %85, %72
  %74 = load i32* %i2, align 4, !dbg !2755        ; [#uses=1 type=i32] [debug line = 93:33]
  %75 = load i32* %3, align 4, !dbg !2755         ; [#uses=1 type=i32] [debug line = 93:33]
  %76 = icmp slt i32 %74, %75, !dbg !2755         ; [#uses=1 type=i1] [debug line = 93:33]
  br i1 %76, label %77, label %88, !dbg !2755     ; [debug line = 93:33]

; <label>:77                                      ; preds = %73
  call void (...)* @_ssdm_op_SpecLoopName(i8* getelementptr inbounds ([13 x i8]* @.str7, i32 0, i32 0)) nounwind, !dbg !2756 ; [debug line = 93:51]
  call void (...)* @_ssdm_RegionBegin(i8* getelementptr inbounds ([13 x i8]* @.str7, i32 0, i32 0)) nounwind, !dbg !2756 ; [debug line = 93:51]
  call void (...)* @_ssdm_op_SpecPipeline(i32 -1, i32 1, i32 1, i32 0, i8* getelementptr inbounds ([1 x i8]* @.str, i32 0, i32 0)) nounwind, !dbg !2758 ; [debug line = 94:1]
  call void (...)* @_ssdm_op_SpecLoopTripCount(i32 254, i32 254, i32 254, i8* getelementptr inbounds ([1 x i8]* @.str, i32 0, i32 0)) nounwind, !dbg !2759 ; [debug line = 95:1]
  %78 = load i32* %i2, align 4, !dbg !2760        ; [#uses=1 type=i32] [debug line = 96:2]
  %79 = add nsw i32 %78, 1024, !dbg !2760         ; [#uses=1 type=i32] [debug line = 96:2]
  %80 = getelementptr inbounds [2048 x i32]* %local_buffer, i32 0, i32 %79, !dbg !2760 ; [#uses=1 type=i32*] [debug line = 96:2]
  %81 = load i32* %80, align 4, !dbg !2760        ; [#uses=1 type=i32] [debug line = 96:2]
  %82 = load i32* %i2, align 4, !dbg !2760        ; [#uses=1 type=i32] [debug line = 96:2]
  %83 = load i32** %2, align 4, !dbg !2760        ; [#uses=1 type=i32*] [debug line = 96:2]
  %84 = getelementptr inbounds i32* %83, i32 %82, !dbg !2760 ; [#uses=1 type=i32*] [debug line = 96:2]
  store i32 %81, i32* %84, align 4, !dbg !2760    ; [debug line = 96:2]
  call void (...)* @_ssdm_RegionEnd(i8* getelementptr inbounds ([13 x i8]* @.str7, i32 0, i32 0)) nounwind, !dbg !2761 ; [debug line = 97:5]
  br label %85, !dbg !2761                        ; [debug line = 97:5]

; <label>:85                                      ; preds = %77
  %86 = load i32* %i2, align 4, !dbg !2762        ; [#uses=1 type=i32] [debug line = 93:46]
  %87 = add nsw i32 %86, 1, !dbg !2762            ; [#uses=1 type=i32] [debug line = 93:46]
  store i32 %87, i32* %i2, align 4, !dbg !2762    ; [debug line = 93:46]
  br label %73, !dbg !2762                        ; [debug line = 93:46]

; <label>:88                                      ; preds = %73
  ret void, !dbg !2763                            ; [debug line = 98:1]
}

; [#uses=7]
declare void @llvm.dbg.declare(metadata, metadata) nounwind readnone

; [#uses=1]
declare void @_ssdm_op_SpecLatency(...) nounwind

; [#uses=2]
declare void @_ssdm_op_SpecInterface(...) nounwind

; [#uses=3]
declare void @_ssdm_op_SpecLoopName(...) nounwind

; [#uses=3]
declare void @_ssdm_RegionBegin(...) nounwind

; [#uses=2]
declare void @_ssdm_op_SpecPipeline(...) nounwind

; [#uses=3]
declare void @_ssdm_op_SpecLoopTripCount(...) nounwind

; [#uses=3]
declare void @_ssdm_RegionEnd(...) nounwind

; [#uses=1]
declare void @_ssdm_SpecDependence(...) nounwind

; [#uses=1]
define internal void @_GLOBAL__I_a() nounwind section ".text.startup" {
  call void @__cxx_global_var_init()
  ret void
}

!llvm.dbg.cu = !{!0}
!opencl.kernels = !{!2706}
!hls.encrypted.func = !{}

!0 = metadata !{i32 786449, i32 0, i32 4, metadata !"/proj/xhdhdstaff2/kalib/sprite_makefile_dev/apps/cpp/getting_started/dependence_inter/emu/_sds/vhls/mean_value_accel/solution/.autopilot/db/mean_value.pragma.2.cpp", metadata !"/proj/xhdhdstaff2/kalib/sprite_makefile_dev/apps/cpp/getting_started/dependence_inter/emu/_sds/vhls", metadata !"clang version 3.1 ", i1 true, i1 false, metadata !"", i32 0, metadata !1, metadata !953, metadata !955, metadata !962} ; [ DW_TAG_compile_unit ]
!1 = metadata !{metadata !2}
!2 = metadata !{metadata !3, metadata !26, metadata !33, metadata !42, metadata !48}
!3 = metadata !{i32 786436, metadata !4, metadata !"_Ios_Fmtflags", metadata !5, i32 52, i64 17, i64 32, i32 0, i32 0, null, metadata !6, i32 0, i32 0} ; [ DW_TAG_enumeration_type ]
!4 = metadata !{i32 786489, null, metadata !"std", metadata !5, i32 44} ; [ DW_TAG_namespace ]
!5 = metadata !{i32 786473, metadata !"/proj/xbuilds/2017.1_sdx_0419_1/installs/lin64/SDx/2017.1/Vivado_HLS/lnx64/tools/gcc/lib/gcc/x86_64-unknown-linux-gnu/4.6.3/../../../../include/c++/4.6.3/bits/ios_base.h", metadata !"/proj/xhdhdstaff2/kalib/sprite_makefile_dev/apps/cpp/getting_started/dependence_inter/emu/_sds/vhls", null} ; [ DW_TAG_file_type ]
!6 = metadata !{metadata !7, metadata !8, metadata !9, metadata !10, metadata !11, metadata !12, metadata !13, metadata !14, metadata !15, metadata !16, metadata !17, metadata !18, metadata !19, metadata !20, metadata !21, metadata !22, metadata !23, metadata !24, metadata !25}
!7 = metadata !{i32 786472, metadata !"_S_boolalpha", i64 1} ; [ DW_TAG_enumerator ]
!8 = metadata !{i32 786472, metadata !"_S_dec", i64 2} ; [ DW_TAG_enumerator ]
!9 = metadata !{i32 786472, metadata !"_S_fixed", i64 4} ; [ DW_TAG_enumerator ]
!10 = metadata !{i32 786472, metadata !"_S_hex", i64 8} ; [ DW_TAG_enumerator ]
!11 = metadata !{i32 786472, metadata !"_S_internal", i64 16} ; [ DW_TAG_enumerator ]
!12 = metadata !{i32 786472, metadata !"_S_left", i64 32} ; [ DW_TAG_enumerator ]
!13 = metadata !{i32 786472, metadata !"_S_oct", i64 64} ; [ DW_TAG_enumerator ]
!14 = metadata !{i32 786472, metadata !"_S_right", i64 128} ; [ DW_TAG_enumerator ]
!15 = metadata !{i32 786472, metadata !"_S_scientific", i64 256} ; [ DW_TAG_enumerator ]
!16 = metadata !{i32 786472, metadata !"_S_showbase", i64 512} ; [ DW_TAG_enumerator ]
!17 = metadata !{i32 786472, metadata !"_S_showpoint", i64 1024} ; [ DW_TAG_enumerator ]
!18 = metadata !{i32 786472, metadata !"_S_showpos", i64 2048} ; [ DW_TAG_enumerator ]
!19 = metadata !{i32 786472, metadata !"_S_skipws", i64 4096} ; [ DW_TAG_enumerator ]
!20 = metadata !{i32 786472, metadata !"_S_unitbuf", i64 8192} ; [ DW_TAG_enumerator ]
!21 = metadata !{i32 786472, metadata !"_S_uppercase", i64 16384} ; [ DW_TAG_enumerator ]
!22 = metadata !{i32 786472, metadata !"_S_adjustfield", i64 176} ; [ DW_TAG_enumerator ]
!23 = metadata !{i32 786472, metadata !"_S_basefield", i64 74} ; [ DW_TAG_enumerator ]
!24 = metadata !{i32 786472, metadata !"_S_floatfield", i64 260} ; [ DW_TAG_enumerator ]
!25 = metadata !{i32 786472, metadata !"_S_ios_fmtflags_end", i64 65536} ; [ DW_TAG_enumerator ]
!26 = metadata !{i32 786436, metadata !4, metadata !"_Ios_Iostate", metadata !5, i32 144, i64 17, i64 32, i32 0, i32 0, null, metadata !27, i32 0, i32 0} ; [ DW_TAG_enumeration_type ]
!27 = metadata !{metadata !28, metadata !29, metadata !30, metadata !31, metadata !32}
!28 = metadata !{i32 786472, metadata !"_S_goodbit", i64 0} ; [ DW_TAG_enumerator ]
!29 = metadata !{i32 786472, metadata !"_S_badbit", i64 1} ; [ DW_TAG_enumerator ]
!30 = metadata !{i32 786472, metadata !"_S_eofbit", i64 2} ; [ DW_TAG_enumerator ]
!31 = metadata !{i32 786472, metadata !"_S_failbit", i64 4} ; [ DW_TAG_enumerator ]
!32 = metadata !{i32 786472, metadata !"_S_ios_iostate_end", i64 65536} ; [ DW_TAG_enumerator ]
!33 = metadata !{i32 786436, metadata !4, metadata !"_Ios_Openmode", metadata !5, i32 104, i64 17, i64 32, i32 0, i32 0, null, metadata !34, i32 0, i32 0} ; [ DW_TAG_enumeration_type ]
!34 = metadata !{metadata !35, metadata !36, metadata !37, metadata !38, metadata !39, metadata !40, metadata !41}
!35 = metadata !{i32 786472, metadata !"_S_app", i64 1} ; [ DW_TAG_enumerator ]
!36 = metadata !{i32 786472, metadata !"_S_ate", i64 2} ; [ DW_TAG_enumerator ]
!37 = metadata !{i32 786472, metadata !"_S_bin", i64 4} ; [ DW_TAG_enumerator ]
!38 = metadata !{i32 786472, metadata !"_S_in", i64 8} ; [ DW_TAG_enumerator ]
!39 = metadata !{i32 786472, metadata !"_S_out", i64 16} ; [ DW_TAG_enumerator ]
!40 = metadata !{i32 786472, metadata !"_S_trunc", i64 32} ; [ DW_TAG_enumerator ]
!41 = metadata !{i32 786472, metadata !"_S_ios_openmode_end", i64 65536} ; [ DW_TAG_enumerator ]
!42 = metadata !{i32 786436, metadata !4, metadata !"_Ios_Seekdir", metadata !5, i32 182, i64 17, i64 32, i32 0, i32 0, null, metadata !43, i32 0, i32 0} ; [ DW_TAG_enumeration_type ]
!43 = metadata !{metadata !44, metadata !45, metadata !46, metadata !47}
!44 = metadata !{i32 786472, metadata !"_S_beg", i64 0} ; [ DW_TAG_enumerator ]
!45 = metadata !{i32 786472, metadata !"_S_cur", i64 1} ; [ DW_TAG_enumerator ]
!46 = metadata !{i32 786472, metadata !"_S_end", i64 2} ; [ DW_TAG_enumerator ]
!47 = metadata !{i32 786472, metadata !"_S_ios_seekdir_end", i64 65536} ; [ DW_TAG_enumerator ]
!48 = metadata !{i32 786436, metadata !49, metadata !"event", metadata !5, i32 420, i64 2, i64 2, i32 0, i32 0, null, metadata !949, i32 0, i32 0} ; [ DW_TAG_enumeration_type ]
!49 = metadata !{i32 786434, metadata !4, metadata !"ios_base", metadata !5, i32 200, i64 896, i64 32, i32 0, i32 0, null, metadata !50, i32 0, metadata !49, null} ; [ DW_TAG_class_type ]
!50 = metadata !{metadata !51, metadata !57, metadata !64, metadata !65, metadata !67, metadata !69, metadata !70, metadata !96, metadata !107, metadata !111, metadata !112, metadata !114, metadata !881, metadata !885, metadata !888, metadata !891, metadata !895, metadata !896, metadata !901, metadata !904, metadata !905, metadata !908, metadata !911, metadata !914, metadata !917, metadata !918, metadata !919, metadata !922, metadata !925, metadata !928, metadata !931, metadata !932, metadata !936, metadata !940, metadata !941, metadata !942, metadata !946}
!51 = metadata !{i32 786445, metadata !5, metadata !"_vptr$ios_base", metadata !5, i32 0, i64 32, i64 0, i64 0, i32 0, metadata !52} ; [ DW_TAG_member ]
!52 = metadata !{i32 786447, null, metadata !"", null, i32 0, i64 32, i64 0, i64 0, i32 0, metadata !53} ; [ DW_TAG_pointer_type ]
!53 = metadata !{i32 786447, null, metadata !"__vtbl_ptr_type", null, i32 0, i64 32, i64 0, i64 0, i32 0, metadata !54} ; [ DW_TAG_pointer_type ]
!54 = metadata !{i32 786453, i32 0, metadata !"", i32 0, i32 0, i64 0, i64 0, i64 0, i32 0, null, metadata !55, i32 0, i32 0} ; [ DW_TAG_subroutine_type ]
!55 = metadata !{metadata !56}
!56 = metadata !{i32 786468, null, metadata !"int", null, i32 0, i64 32, i64 32, i64 0, i32 0, i32 5} ; [ DW_TAG_base_type ]
!57 = metadata !{i32 786445, metadata !49, metadata !"_M_precision", metadata !5, i32 453, i64 32, i64 32, i64 32, i32 2, metadata !58} ; [ DW_TAG_member ]
!58 = metadata !{i32 786454, metadata !59, metadata !"streamsize", metadata !5, i32 99, i64 0, i64 0, i64 0, i32 0, metadata !61} ; [ DW_TAG_typedef ]
!59 = metadata !{i32 786489, null, metadata !"std", metadata !60, i32 69} ; [ DW_TAG_namespace ]
!60 = metadata !{i32 786473, metadata !"/proj/xbuilds/2017.1_sdx_0419_1/installs/lin64/SDx/2017.1/Vivado_HLS/lnx64/tools/gcc/lib/gcc/x86_64-unknown-linux-gnu/4.6.3/../../../../include/c++/4.6.3/bits/postypes.h", metadata !"/proj/xhdhdstaff2/kalib/sprite_makefile_dev/apps/cpp/getting_started/dependence_inter/emu/_sds/vhls", null} ; [ DW_TAG_file_type ]
!61 = metadata !{i32 786454, metadata !62, metadata !"ptrdiff_t", metadata !5, i32 156, i64 0, i64 0, i64 0, i32 0, metadata !56} ; [ DW_TAG_typedef ]
!62 = metadata !{i32 786489, null, metadata !"std", metadata !63, i32 153} ; [ DW_TAG_namespace ]
!63 = metadata !{i32 786473, metadata !"/proj/xbuilds/2017.1_sdx_0419_1/installs/lin64/SDx/2017.1/Vivado_HLS/lnx64/tools/gcc/lib/gcc/x86_64-unknown-linux-gnu/4.6.3/../../../../include/c++/4.6.3/x86_64-unknown-linux-gnu/32/bits/c++config.h", metadata !"/proj/xhdhdstaff2/kalib/sprite_makefile_dev/apps/cpp/getting_started/dependence_inter/emu/_sds/vhls", null} ; [ DW_TAG_file_type ]
!64 = metadata !{i32 786445, metadata !49, metadata !"_M_width", metadata !5, i32 454, i64 32, i64 32, i64 64, i32 2, metadata !58} ; [ DW_TAG_member ]
!65 = metadata !{i32 786445, metadata !49, metadata !"_M_flags", metadata !5, i32 455, i64 17, i64 32, i64 96, i32 2, metadata !66} ; [ DW_TAG_member ]
!66 = metadata !{i32 786454, metadata !49, metadata !"fmtflags", metadata !5, i32 256, i64 0, i64 0, i64 0, i32 0, metadata !3} ; [ DW_TAG_typedef ]
!67 = metadata !{i32 786445, metadata !49, metadata !"_M_exception", metadata !5, i32 456, i64 17, i64 32, i64 128, i32 2, metadata !68} ; [ DW_TAG_member ]
!68 = metadata !{i32 786454, metadata !49, metadata !"iostate", metadata !5, i32 331, i64 0, i64 0, i64 0, i32 0, metadata !26} ; [ DW_TAG_typedef ]
!69 = metadata !{i32 786445, metadata !49, metadata !"_M_streambuf_state", metadata !5, i32 457, i64 17, i64 32, i64 160, i32 2, metadata !68} ; [ DW_TAG_member ]
!70 = metadata !{i32 786445, metadata !49, metadata !"_M_callbacks", metadata !5, i32 491, i64 32, i64 32, i64 192, i32 2, metadata !71} ; [ DW_TAG_member ]
!71 = metadata !{i32 786447, null, metadata !"", null, i32 0, i64 32, i64 32, i64 0, i32 0, metadata !72} ; [ DW_TAG_pointer_type ]
!72 = metadata !{i32 786434, metadata !49, metadata !"_Callback_list", metadata !5, i32 461, i64 128, i64 32, i32 0, i32 0, null, metadata !73, i32 0, null, null} ; [ DW_TAG_class_type ]
!73 = metadata !{metadata !74, metadata !75, metadata !81, metadata !82, metadata !84, metadata !90, metadata !93}
!74 = metadata !{i32 786445, metadata !72, metadata !"_M_next", metadata !5, i32 464, i64 32, i64 32, i64 0, i32 0, metadata !71} ; [ DW_TAG_member ]
!75 = metadata !{i32 786445, metadata !72, metadata !"_M_fn", metadata !5, i32 465, i64 32, i64 32, i64 32, i32 0, metadata !76} ; [ DW_TAG_member ]
!76 = metadata !{i32 786454, metadata !49, metadata !"event_callback", metadata !5, i32 437, i64 0, i64 0, i64 0, i32 0, metadata !77} ; [ DW_TAG_typedef ]
!77 = metadata !{i32 786447, null, metadata !"", null, i32 0, i64 32, i64 32, i64 0, i32 0, metadata !78} ; [ DW_TAG_pointer_type ]
!78 = metadata !{i32 786453, i32 0, metadata !"", i32 0, i32 0, i64 0, i64 0, i64 0, i32 0, null, metadata !79, i32 0, i32 0} ; [ DW_TAG_subroutine_type ]
!79 = metadata !{null, metadata !48, metadata !80, metadata !56}
!80 = metadata !{i32 786448, null, null, null, i32 0, i64 0, i64 0, i64 0, i32 0, metadata !49} ; [ DW_TAG_reference_type ]
!81 = metadata !{i32 786445, metadata !72, metadata !"_M_index", metadata !5, i32 466, i64 32, i64 32, i64 64, i32 0, metadata !56} ; [ DW_TAG_member ]
!82 = metadata !{i32 786445, metadata !72, metadata !"_M_refcount", metadata !5, i32 467, i64 32, i64 32, i64 96, i32 0, metadata !83} ; [ DW_TAG_member ]
!83 = metadata !{i32 786454, null, metadata !"_Atomic_word", metadata !5, i32 32, i64 0, i64 0, i64 0, i32 0, metadata !56} ; [ DW_TAG_typedef ]
!84 = metadata !{i32 786478, i32 0, metadata !72, metadata !"_Callback_list", metadata !"_Callback_list", metadata !"", metadata !5, i32 469, metadata !85, i1 false, i1 false, i32 0, i32 0, null, i32 256, i1 false, null, null, i32 0, metadata !88, i32 469} ; [ DW_TAG_subprogram ]
!85 = metadata !{i32 786453, i32 0, metadata !"", i32 0, i32 0, i64 0, i64 0, i64 0, i32 0, null, metadata !86, i32 0, i32 0} ; [ DW_TAG_subroutine_type ]
!86 = metadata !{null, metadata !87, metadata !76, metadata !56, metadata !71}
!87 = metadata !{i32 786447, i32 0, metadata !"", i32 0, i32 0, i64 32, i64 32, i64 0, i32 64, metadata !72} ; [ DW_TAG_pointer_type ]
!88 = metadata !{metadata !89}
!89 = metadata !{i32 786468}                      ; [ DW_TAG_base_type ]
!90 = metadata !{i32 786478, i32 0, metadata !72, metadata !"_M_add_reference", metadata !"_M_add_reference", metadata !"_ZNSt8ios_base14_Callback_list16_M_add_referenceEv", metadata !5, i32 474, metadata !91, i1 false, i1 false, i32 0, i32 0, null, i32 256, i1 false, null, null, i32 0, metadata !88, i32 474} ; [ DW_TAG_subprogram ]
!91 = metadata !{i32 786453, i32 0, metadata !"", i32 0, i32 0, i64 0, i64 0, i64 0, i32 0, null, metadata !92, i32 0, i32 0} ; [ DW_TAG_subroutine_type ]
!92 = metadata !{null, metadata !87}
!93 = metadata !{i32 786478, i32 0, metadata !72, metadata !"_M_remove_reference", metadata !"_M_remove_reference", metadata !"_ZNSt8ios_base14_Callback_list19_M_remove_referenceEv", metadata !5, i32 478, metadata !94, i1 false, i1 false, i32 0, i32 0, null, i32 256, i1 false, null, null, i32 0, metadata !88, i32 478} ; [ DW_TAG_subprogram ]
!94 = metadata !{i32 786453, i32 0, metadata !"", i32 0, i32 0, i64 0, i64 0, i64 0, i32 0, null, metadata !95, i32 0, i32 0} ; [ DW_TAG_subroutine_type ]
!95 = metadata !{metadata !56, metadata !87}
!96 = metadata !{i32 786445, metadata !49, metadata !"_M_word_zero", metadata !5, i32 508, i64 64, i64 32, i64 224, i32 2, metadata !97} ; [ DW_TAG_member ]
!97 = metadata !{i32 786434, metadata !49, metadata !"_Words", metadata !5, i32 500, i64 64, i64 32, i32 0, i32 0, null, metadata !98, i32 0, null, null} ; [ DW_TAG_class_type ]
!98 = metadata !{metadata !99, metadata !101, metadata !103}
!99 = metadata !{i32 786445, metadata !97, metadata !"_M_pword", metadata !5, i32 502, i64 32, i64 32, i64 0, i32 0, metadata !100} ; [ DW_TAG_member ]
!100 = metadata !{i32 786447, null, metadata !"", null, i32 0, i64 32, i64 32, i64 0, i32 0, null} ; [ DW_TAG_pointer_type ]
!101 = metadata !{i32 786445, metadata !97, metadata !"_M_iword", metadata !5, i32 503, i64 32, i64 32, i64 32, i32 0, metadata !102} ; [ DW_TAG_member ]
!102 = metadata !{i32 786468, null, metadata !"long int", null, i32 0, i64 32, i64 32, i64 0, i32 0, i32 5} ; [ DW_TAG_base_type ]
!103 = metadata !{i32 786478, i32 0, metadata !97, metadata !"_Words", metadata !"_Words", metadata !"", metadata !5, i32 504, metadata !104, i1 false, i1 false, i32 0, i32 0, null, i32 256, i1 false, null, null, i32 0, metadata !88, i32 504} ; [ DW_TAG_subprogram ]
!104 = metadata !{i32 786453, i32 0, metadata !"", i32 0, i32 0, i64 0, i64 0, i64 0, i32 0, null, metadata !105, i32 0, i32 0} ; [ DW_TAG_subroutine_type ]
!105 = metadata !{null, metadata !106}
!106 = metadata !{i32 786447, i32 0, metadata !"", i32 0, i32 0, i64 32, i64 32, i64 0, i32 64, metadata !97} ; [ DW_TAG_pointer_type ]
!107 = metadata !{i32 786445, metadata !49, metadata !"_M_local_word", metadata !5, i32 513, i64 512, i64 32, i64 288, i32 2, metadata !108} ; [ DW_TAG_member ]
!108 = metadata !{i32 786433, null, metadata !"", null, i32 0, i64 512, i64 32, i32 0, i32 0, metadata !97, metadata !109, i32 0, i32 0} ; [ DW_TAG_array_type ]
!109 = metadata !{metadata !110}
!110 = metadata !{i32 786465, i64 0, i64 7}       ; [ DW_TAG_subrange_type ]
!111 = metadata !{i32 786445, metadata !49, metadata !"_M_word_size", metadata !5, i32 516, i64 32, i64 32, i64 800, i32 2, metadata !56} ; [ DW_TAG_member ]
!112 = metadata !{i32 786445, metadata !49, metadata !"_M_word", metadata !5, i32 517, i64 32, i64 32, i64 832, i32 2, metadata !113} ; [ DW_TAG_member ]
!113 = metadata !{i32 786447, null, metadata !"", null, i32 0, i64 32, i64 32, i64 0, i32 0, metadata !97} ; [ DW_TAG_pointer_type ]
!114 = metadata !{i32 786445, metadata !49, metadata !"_M_ios_locale", metadata !5, i32 523, i64 32, i64 32, i64 864, i32 2, metadata !115} ; [ DW_TAG_member ]
!115 = metadata !{i32 786434, metadata !116, metadata !"locale", metadata !117, i32 63, i64 32, i64 32, i32 0, i32 0, null, metadata !118, i32 0, null, null} ; [ DW_TAG_class_type ]
!116 = metadata !{i32 786489, null, metadata !"std", metadata !117, i32 44} ; [ DW_TAG_namespace ]
!117 = metadata !{i32 786473, metadata !"/proj/xbuilds/2017.1_sdx_0419_1/installs/lin64/SDx/2017.1/Vivado_HLS/lnx64/tools/gcc/lib/gcc/x86_64-unknown-linux-gnu/4.6.3/../../../../include/c++/4.6.3/bits/locale_classes.h", metadata !"/proj/xhdhdstaff2/kalib/sprite_makefile_dev/apps/cpp/getting_started/dependence_inter/emu/_sds/vhls", null} ; [ DW_TAG_file_type ]
!118 = metadata !{metadata !119, metadata !280, metadata !284, metadata !289, metadata !292, metadata !295, metadata !298, metadata !299, metadata !302, metadata !860, metadata !863, metadata !864, metadata !867, metadata !870, metadata !873, metadata !874, metadata !875, metadata !878, metadata !879, metadata !880}
!119 = metadata !{i32 786445, metadata !115, metadata !"_M_impl", metadata !117, i32 280, i64 32, i64 32, i64 0, i32 1, metadata !120} ; [ DW_TAG_member ]
!120 = metadata !{i32 786447, null, metadata !"", null, i32 0, i64 32, i64 32, i64 0, i32 0, metadata !121} ; [ DW_TAG_pointer_type ]
!121 = metadata !{i32 786434, metadata !115, metadata !"_Impl", metadata !117, i32 475, i64 160, i64 32, i32 0, i32 0, null, metadata !122, i32 0, null, null} ; [ DW_TAG_class_type ]
!122 = metadata !{metadata !123, metadata !124, metadata !209, metadata !210, metadata !211, metadata !214, metadata !218, metadata !219, metadata !224, metadata !227, metadata !230, metadata !231, metadata !234, metadata !235, metadata !239, metadata !244, metadata !269, metadata !272, metadata !275, metadata !278, metadata !279}
!123 = metadata !{i32 786445, metadata !121, metadata !"_M_refcount", metadata !117, i32 495, i64 32, i64 32, i64 0, i32 1, metadata !83} ; [ DW_TAG_member ]
!124 = metadata !{i32 786445, metadata !121, metadata !"_M_facets", metadata !117, i32 496, i64 32, i64 32, i64 32, i32 1, metadata !125} ; [ DW_TAG_member ]
!125 = metadata !{i32 786447, null, metadata !"", null, i32 0, i64 32, i64 32, i64 0, i32 0, metadata !126} ; [ DW_TAG_pointer_type ]
!126 = metadata !{i32 786447, null, metadata !"", null, i32 0, i64 32, i64 32, i64 0, i32 0, metadata !127} ; [ DW_TAG_pointer_type ]
!127 = metadata !{i32 786470, null, metadata !"", null, i32 0, i64 0, i64 0, i64 0, i32 0, metadata !128} ; [ DW_TAG_const_type ]
!128 = metadata !{i32 786434, metadata !115, metadata !"facet", metadata !117, i32 338, i64 64, i64 32, i32 0, i32 0, null, metadata !129, i32 0, metadata !128, null} ; [ DW_TAG_class_type ]
!129 = metadata !{metadata !130, metadata !131, metadata !132, metadata !135, metadata !141, metadata !144, metadata !179, metadata !182, metadata !185, metadata !188, metadata !191, metadata !194, metadata !198, metadata !199, metadata !203, metadata !207, metadata !208}
!130 = metadata !{i32 786445, metadata !117, metadata !"_vptr$facet", metadata !117, i32 0, i64 32, i64 0, i64 0, i32 0, metadata !52} ; [ DW_TAG_member ]
!131 = metadata !{i32 786445, metadata !128, metadata !"_M_refcount", metadata !117, i32 344, i64 32, i64 32, i64 32, i32 1, metadata !83} ; [ DW_TAG_member ]
!132 = metadata !{i32 786478, i32 0, metadata !128, metadata !"_S_initialize_once", metadata !"_S_initialize_once", metadata !"_ZNSt6locale5facet18_S_initialize_onceEv", metadata !117, i32 357, metadata !133, i1 false, i1 false, i32 0, i32 0, null, i32 257, i1 false, null, null, i32 0, metadata !88, i32 357} ; [ DW_TAG_subprogram ]
!133 = metadata !{i32 786453, i32 0, metadata !"", i32 0, i32 0, i64 0, i64 0, i64 0, i32 0, null, metadata !134, i32 0, i32 0} ; [ DW_TAG_subroutine_type ]
!134 = metadata !{null}
!135 = metadata !{i32 786478, i32 0, metadata !128, metadata !"facet", metadata !"facet", metadata !"", metadata !117, i32 370, metadata !136, i1 false, i1 false, i32 0, i32 0, null, i32 386, i1 false, null, null, i32 0, metadata !88, i32 370} ; [ DW_TAG_subprogram ]
!136 = metadata !{i32 786453, i32 0, metadata !"", i32 0, i32 0, i64 0, i64 0, i64 0, i32 0, null, metadata !137, i32 0, i32 0} ; [ DW_TAG_subroutine_type ]
!137 = metadata !{null, metadata !138, metadata !139}
!138 = metadata !{i32 786447, i32 0, metadata !"", i32 0, i32 0, i64 32, i64 32, i64 0, i32 64, metadata !128} ; [ DW_TAG_pointer_type ]
!139 = metadata !{i32 786454, metadata !62, metadata !"size_t", metadata !117, i32 155, i64 0, i64 0, i64 0, i32 0, metadata !140} ; [ DW_TAG_typedef ]
!140 = metadata !{i32 786468, null, metadata !"unsigned int", null, i32 0, i64 32, i64 32, i64 0, i32 0, i32 7} ; [ DW_TAG_base_type ]
!141 = metadata !{i32 786478, i32 0, metadata !128, metadata !"~facet", metadata !"~facet", metadata !"", metadata !117, i32 375, metadata !142, i1 false, i1 false, i32 1, i32 0, metadata !128, i32 258, i1 false, null, null, i32 0, metadata !88, i32 375} ; [ DW_TAG_subprogram ]
!142 = metadata !{i32 786453, i32 0, metadata !"", i32 0, i32 0, i64 0, i64 0, i64 0, i32 0, null, metadata !143, i32 0, i32 0} ; [ DW_TAG_subroutine_type ]
!143 = metadata !{null, metadata !138}
!144 = metadata !{i32 786478, i32 0, metadata !128, metadata !"_S_create_c_locale", metadata !"_S_create_c_locale", metadata !"_ZNSt6locale5facet18_S_create_c_localeERP15__locale_structPKcS2_", metadata !117, i32 378, metadata !145, i1 false, i1 false, i32 0, i32 0, null, i32 258, i1 false, null, null, i32 0, metadata !88, i32 378} ; [ DW_TAG_subprogram ]
!145 = metadata !{i32 786453, i32 0, metadata !"", i32 0, i32 0, i64 0, i64 0, i64 0, i32 0, null, metadata !146, i32 0, i32 0} ; [ DW_TAG_subroutine_type ]
!146 = metadata !{null, metadata !147, metadata !172, metadata !148}
!147 = metadata !{i32 786448, null, null, null, i32 0, i64 0, i64 0, i64 0, i32 0, metadata !148} ; [ DW_TAG_reference_type ]
!148 = metadata !{i32 786454, metadata !149, metadata !"__c_locale", metadata !117, i32 62, i64 0, i64 0, i64 0, i32 0, metadata !151} ; [ DW_TAG_typedef ]
!149 = metadata !{i32 786489, null, metadata !"std", metadata !150, i32 58} ; [ DW_TAG_namespace ]
!150 = metadata !{i32 786473, metadata !"/proj/xbuilds/2017.1_sdx_0419_1/installs/lin64/SDx/2017.1/Vivado_HLS/lnx64/tools/gcc/lib/gcc/x86_64-unknown-linux-gnu/4.6.3/../../../../include/c++/4.6.3/x86_64-unknown-linux-gnu/32/bits/c++locale.h", metadata !"/proj/xhdhdstaff2/kalib/sprite_makefile_dev/apps/cpp/getting_started/dependence_inter/emu/_sds/vhls", null} ; [ DW_TAG_file_type ]
!151 = metadata !{i32 786454, null, metadata !"__locale_t", metadata !117, i32 40, i64 0, i64 0, i64 0, i32 0, metadata !152} ; [ DW_TAG_typedef ]
!152 = metadata !{i32 786447, null, metadata !"", null, i32 0, i64 32, i64 32, i64 0, i32 0, metadata !153} ; [ DW_TAG_pointer_type ]
!153 = metadata !{i32 786434, null, metadata !"__locale_struct", metadata !154, i32 28, i64 928, i64 32, i32 0, i32 0, null, metadata !155, i32 0, null, null} ; [ DW_TAG_class_type ]
!154 = metadata !{i32 786473, metadata !"/usr/include/xlocale.h", metadata !"/proj/xhdhdstaff2/kalib/sprite_makefile_dev/apps/cpp/getting_started/dependence_inter/emu/_sds/vhls", null} ; [ DW_TAG_file_type ]
!155 = metadata !{metadata !156, metadata !162, metadata !166, metadata !169, metadata !170, metadata !175}
!156 = metadata !{i32 786445, metadata !153, metadata !"__locales", metadata !154, i32 31, i64 416, i64 32, i64 0, i32 0, metadata !157} ; [ DW_TAG_member ]
!157 = metadata !{i32 786433, null, metadata !"", null, i32 0, i64 416, i64 32, i32 0, i32 0, metadata !158, metadata !160, i32 0, i32 0} ; [ DW_TAG_array_type ]
!158 = metadata !{i32 786447, null, metadata !"", null, i32 0, i64 32, i64 32, i64 0, i32 0, metadata !159} ; [ DW_TAG_pointer_type ]
!159 = metadata !{i32 786434, null, metadata !"__locale_data", metadata !154, i32 31, i32 0, i32 0, i32 0, i32 4, null, null, i32 0} ; [ DW_TAG_class_type ]
!160 = metadata !{metadata !161}
!161 = metadata !{i32 786465, i64 0, i64 12}      ; [ DW_TAG_subrange_type ]
!162 = metadata !{i32 786445, metadata !153, metadata !"__ctype_b", metadata !154, i32 34, i64 32, i64 32, i64 416, i32 0, metadata !163} ; [ DW_TAG_member ]
!163 = metadata !{i32 786447, null, metadata !"", null, i32 0, i64 32, i64 32, i64 0, i32 0, metadata !164} ; [ DW_TAG_pointer_type ]
!164 = metadata !{i32 786470, null, metadata !"", null, i32 0, i64 0, i64 0, i64 0, i32 0, metadata !165} ; [ DW_TAG_const_type ]
!165 = metadata !{i32 786468, null, metadata !"unsigned short", null, i32 0, i64 16, i64 16, i64 0, i32 0, i32 7} ; [ DW_TAG_base_type ]
!166 = metadata !{i32 786445, metadata !153, metadata !"__ctype_tolower", metadata !154, i32 35, i64 32, i64 32, i64 448, i32 0, metadata !167} ; [ DW_TAG_member ]
!167 = metadata !{i32 786447, null, metadata !"", null, i32 0, i64 32, i64 32, i64 0, i32 0, metadata !168} ; [ DW_TAG_pointer_type ]
!168 = metadata !{i32 786470, null, metadata !"", null, i32 0, i64 0, i64 0, i64 0, i32 0, metadata !56} ; [ DW_TAG_const_type ]
!169 = metadata !{i32 786445, metadata !153, metadata !"__ctype_toupper", metadata !154, i32 36, i64 32, i64 32, i64 480, i32 0, metadata !167} ; [ DW_TAG_member ]
!170 = metadata !{i32 786445, metadata !153, metadata !"__names", metadata !154, i32 39, i64 416, i64 32, i64 512, i32 0, metadata !171} ; [ DW_TAG_member ]
!171 = metadata !{i32 786433, null, metadata !"", null, i32 0, i64 416, i64 32, i32 0, i32 0, metadata !172, metadata !160, i32 0, i32 0} ; [ DW_TAG_array_type ]
!172 = metadata !{i32 786447, null, metadata !"", null, i32 0, i64 32, i64 32, i64 0, i32 0, metadata !173} ; [ DW_TAG_pointer_type ]
!173 = metadata !{i32 786470, null, metadata !"", null, i32 0, i64 0, i64 0, i64 0, i32 0, metadata !174} ; [ DW_TAG_const_type ]
!174 = metadata !{i32 786468, null, metadata !"char", null, i32 0, i64 8, i64 8, i64 0, i32 0, i32 6} ; [ DW_TAG_base_type ]
!175 = metadata !{i32 786478, i32 0, metadata !153, metadata !"__locale_struct", metadata !"__locale_struct", metadata !"", metadata !154, i32 42, metadata !176, i1 false, i1 false, i32 0, i32 0, null, i32 256, i1 false, null, null, i32 0, metadata !88, i32 42} ; [ DW_TAG_subprogram ]
!176 = metadata !{i32 786453, i32 0, metadata !"", i32 0, i32 0, i64 0, i64 0, i64 0, i32 0, null, metadata !177, i32 0, i32 0} ; [ DW_TAG_subroutine_type ]
!177 = metadata !{null, metadata !178}
!178 = metadata !{i32 786447, i32 0, metadata !"", i32 0, i32 0, i64 32, i64 32, i64 0, i32 64, metadata !153} ; [ DW_TAG_pointer_type ]
!179 = metadata !{i32 786478, i32 0, metadata !128, metadata !"_S_clone_c_locale", metadata !"_S_clone_c_locale", metadata !"_ZNSt6locale5facet17_S_clone_c_localeERP15__locale_struct", metadata !117, i32 382, metadata !180, i1 false, i1 false, i32 0, i32 0, null, i32 258, i1 false, null, null, i32 0, metadata !88, i32 382} ; [ DW_TAG_subprogram ]
!180 = metadata !{i32 786453, i32 0, metadata !"", i32 0, i32 0, i64 0, i64 0, i64 0, i32 0, null, metadata !181, i32 0, i32 0} ; [ DW_TAG_subroutine_type ]
!181 = metadata !{metadata !148, metadata !147}
!182 = metadata !{i32 786478, i32 0, metadata !128, metadata !"_S_destroy_c_locale", metadata !"_S_destroy_c_locale", metadata !"_ZNSt6locale5facet19_S_destroy_c_localeERP15__locale_struct", metadata !117, i32 385, metadata !183, i1 false, i1 false, i32 0, i32 0, null, i32 258, i1 false, null, null, i32 0, metadata !88, i32 385} ; [ DW_TAG_subprogram ]
!183 = metadata !{i32 786453, i32 0, metadata !"", i32 0, i32 0, i64 0, i64 0, i64 0, i32 0, null, metadata !184, i32 0, i32 0} ; [ DW_TAG_subroutine_type ]
!184 = metadata !{null, metadata !147}
!185 = metadata !{i32 786478, i32 0, metadata !128, metadata !"_S_lc_ctype_c_locale", metadata !"_S_lc_ctype_c_locale", metadata !"_ZNSt6locale5facet20_S_lc_ctype_c_localeEP15__locale_structPKc", metadata !117, i32 388, metadata !186, i1 false, i1 false, i32 0, i32 0, null, i32 258, i1 false, null, null, i32 0, metadata !88, i32 388} ; [ DW_TAG_subprogram ]
!186 = metadata !{i32 786453, i32 0, metadata !"", i32 0, i32 0, i64 0, i64 0, i64 0, i32 0, null, metadata !187, i32 0, i32 0} ; [ DW_TAG_subroutine_type ]
!187 = metadata !{metadata !148, metadata !148, metadata !172}
!188 = metadata !{i32 786478, i32 0, metadata !128, metadata !"_S_get_c_locale", metadata !"_S_get_c_locale", metadata !"_ZNSt6locale5facet15_S_get_c_localeEv", metadata !117, i32 393, metadata !189, i1 false, i1 false, i32 0, i32 0, null, i32 258, i1 false, null, null, i32 0, metadata !88, i32 393} ; [ DW_TAG_subprogram ]
!189 = metadata !{i32 786453, i32 0, metadata !"", i32 0, i32 0, i64 0, i64 0, i64 0, i32 0, null, metadata !190, i32 0, i32 0} ; [ DW_TAG_subroutine_type ]
!190 = metadata !{metadata !148}
!191 = metadata !{i32 786478, i32 0, metadata !128, metadata !"_S_get_c_name", metadata !"_S_get_c_name", metadata !"_ZNSt6locale5facet13_S_get_c_nameEv", metadata !117, i32 396, metadata !192, i1 false, i1 false, i32 0, i32 0, null, i32 258, i1 false, null, null, i32 0, metadata !88, i32 396} ; [ DW_TAG_subprogram ]
!192 = metadata !{i32 786453, i32 0, metadata !"", i32 0, i32 0, i64 0, i64 0, i64 0, i32 0, null, metadata !193, i32 0, i32 0} ; [ DW_TAG_subroutine_type ]
!193 = metadata !{metadata !172}
!194 = metadata !{i32 786478, i32 0, metadata !128, metadata !"_M_add_reference", metadata !"_M_add_reference", metadata !"_ZNKSt6locale5facet16_M_add_referenceEv", metadata !117, i32 400, metadata !195, i1 false, i1 false, i32 0, i32 0, null, i32 257, i1 false, null, null, i32 0, metadata !88, i32 400} ; [ DW_TAG_subprogram ]
!195 = metadata !{i32 786453, i32 0, metadata !"", i32 0, i32 0, i64 0, i64 0, i64 0, i32 0, null, metadata !196, i32 0, i32 0} ; [ DW_TAG_subroutine_type ]
!196 = metadata !{null, metadata !197}
!197 = metadata !{i32 786447, i32 0, metadata !"", i32 0, i32 0, i64 32, i64 32, i64 0, i32 64, metadata !127} ; [ DW_TAG_pointer_type ]
!198 = metadata !{i32 786478, i32 0, metadata !128, metadata !"_M_remove_reference", metadata !"_M_remove_reference", metadata !"_ZNKSt6locale5facet19_M_remove_referenceEv", metadata !117, i32 404, metadata !195, i1 false, i1 false, i32 0, i32 0, null, i32 257, i1 false, null, null, i32 0, metadata !88, i32 404} ; [ DW_TAG_subprogram ]
!199 = metadata !{i32 786478, i32 0, metadata !128, metadata !"facet", metadata !"facet", metadata !"", metadata !117, i32 418, metadata !200, i1 false, i1 false, i32 0, i32 0, null, i32 257, i1 false, null, null, i32 0, metadata !88, i32 418} ; [ DW_TAG_subprogram ]
!200 = metadata !{i32 786453, i32 0, metadata !"", i32 0, i32 0, i64 0, i64 0, i64 0, i32 0, null, metadata !201, i32 0, i32 0} ; [ DW_TAG_subroutine_type ]
!201 = metadata !{null, metadata !138, metadata !202}
!202 = metadata !{i32 786448, null, null, null, i32 0, i64 0, i64 0, i64 0, i32 0, metadata !127} ; [ DW_TAG_reference_type ]
!203 = metadata !{i32 786478, i32 0, metadata !128, metadata !"operator=", metadata !"operator=", metadata !"_ZNSt6locale5facetaSERKS0_", metadata !117, i32 421, metadata !204, i1 false, i1 false, i32 0, i32 0, null, i32 257, i1 false, null, null, i32 0, metadata !88, i32 421} ; [ DW_TAG_subprogram ]
!204 = metadata !{i32 786453, i32 0, metadata !"", i32 0, i32 0, i64 0, i64 0, i64 0, i32 0, null, metadata !205, i32 0, i32 0} ; [ DW_TAG_subroutine_type ]
!205 = metadata !{metadata !206, metadata !138, metadata !202}
!206 = metadata !{i32 786448, null, null, null, i32 0, i64 0, i64 0, i64 0, i32 0, metadata !128} ; [ DW_TAG_reference_type ]
!207 = metadata !{i32 786474, metadata !128, null, metadata !117, i32 0, i64 0, i64 0, i64 0, i32 0, metadata !121} ; [ DW_TAG_friend ]
!208 = metadata !{i32 786474, metadata !128, null, metadata !117, i32 0, i64 0, i64 0, i64 0, i32 0, metadata !115} ; [ DW_TAG_friend ]
!209 = metadata !{i32 786445, metadata !121, metadata !"_M_facets_size", metadata !117, i32 497, i64 32, i64 32, i64 64, i32 1, metadata !139} ; [ DW_TAG_member ]
!210 = metadata !{i32 786445, metadata !121, metadata !"_M_caches", metadata !117, i32 498, i64 32, i64 32, i64 96, i32 1, metadata !125} ; [ DW_TAG_member ]
!211 = metadata !{i32 786445, metadata !121, metadata !"_M_names", metadata !117, i32 499, i64 32, i64 32, i64 128, i32 1, metadata !212} ; [ DW_TAG_member ]
!212 = metadata !{i32 786447, null, metadata !"", null, i32 0, i64 32, i64 32, i64 0, i32 0, metadata !213} ; [ DW_TAG_pointer_type ]
!213 = metadata !{i32 786447, null, metadata !"", null, i32 0, i64 32, i64 32, i64 0, i32 0, metadata !174} ; [ DW_TAG_pointer_type ]
!214 = metadata !{i32 786478, i32 0, metadata !121, metadata !"_M_add_reference", metadata !"_M_add_reference", metadata !"_ZNSt6locale5_Impl16_M_add_referenceEv", metadata !117, i32 509, metadata !215, i1 false, i1 false, i32 0, i32 0, null, i32 257, i1 false, null, null, i32 0, metadata !88, i32 509} ; [ DW_TAG_subprogram ]
!215 = metadata !{i32 786453, i32 0, metadata !"", i32 0, i32 0, i64 0, i64 0, i64 0, i32 0, null, metadata !216, i32 0, i32 0} ; [ DW_TAG_subroutine_type ]
!216 = metadata !{null, metadata !217}
!217 = metadata !{i32 786447, i32 0, metadata !"", i32 0, i32 0, i64 32, i64 32, i64 0, i32 64, metadata !121} ; [ DW_TAG_pointer_type ]
!218 = metadata !{i32 786478, i32 0, metadata !121, metadata !"_M_remove_reference", metadata !"_M_remove_reference", metadata !"_ZNSt6locale5_Impl19_M_remove_referenceEv", metadata !117, i32 513, metadata !215, i1 false, i1 false, i32 0, i32 0, null, i32 257, i1 false, null, null, i32 0, metadata !88, i32 513} ; [ DW_TAG_subprogram ]
!219 = metadata !{i32 786478, i32 0, metadata !121, metadata !"_Impl", metadata !"_Impl", metadata !"", metadata !117, i32 527, metadata !220, i1 false, i1 false, i32 0, i32 0, null, i32 257, i1 false, null, null, i32 0, metadata !88, i32 527} ; [ DW_TAG_subprogram ]
!220 = metadata !{i32 786453, i32 0, metadata !"", i32 0, i32 0, i64 0, i64 0, i64 0, i32 0, null, metadata !221, i32 0, i32 0} ; [ DW_TAG_subroutine_type ]
!221 = metadata !{null, metadata !217, metadata !222, metadata !139}
!222 = metadata !{i32 786448, null, null, null, i32 0, i64 0, i64 0, i64 0, i32 0, metadata !223} ; [ DW_TAG_reference_type ]
!223 = metadata !{i32 786470, null, metadata !"", null, i32 0, i64 0, i64 0, i64 0, i32 0, metadata !121} ; [ DW_TAG_const_type ]
!224 = metadata !{i32 786478, i32 0, metadata !121, metadata !"_Impl", metadata !"_Impl", metadata !"", metadata !117, i32 528, metadata !225, i1 false, i1 false, i32 0, i32 0, null, i32 257, i1 false, null, null, i32 0, metadata !88, i32 528} ; [ DW_TAG_subprogram ]
!225 = metadata !{i32 786453, i32 0, metadata !"", i32 0, i32 0, i64 0, i64 0, i64 0, i32 0, null, metadata !226, i32 0, i32 0} ; [ DW_TAG_subroutine_type ]
!226 = metadata !{null, metadata !217, metadata !172, metadata !139}
!227 = metadata !{i32 786478, i32 0, metadata !121, metadata !"_Impl", metadata !"_Impl", metadata !"", metadata !117, i32 529, metadata !228, i1 false, i1 false, i32 0, i32 0, null, i32 257, i1 false, null, null, i32 0, metadata !88, i32 529} ; [ DW_TAG_subprogram ]
!228 = metadata !{i32 786453, i32 0, metadata !"", i32 0, i32 0, i64 0, i64 0, i64 0, i32 0, null, metadata !229, i32 0, i32 0} ; [ DW_TAG_subroutine_type ]
!229 = metadata !{null, metadata !217, metadata !139}
!230 = metadata !{i32 786478, i32 0, metadata !121, metadata !"~_Impl", metadata !"~_Impl", metadata !"", metadata !117, i32 531, metadata !215, i1 false, i1 false, i32 0, i32 0, null, i32 257, i1 false, null, null, i32 0, metadata !88, i32 531} ; [ DW_TAG_subprogram ]
!231 = metadata !{i32 786478, i32 0, metadata !121, metadata !"_Impl", metadata !"_Impl", metadata !"", metadata !117, i32 533, metadata !232, i1 false, i1 false, i32 0, i32 0, null, i32 257, i1 false, null, null, i32 0, metadata !88, i32 533} ; [ DW_TAG_subprogram ]
!232 = metadata !{i32 786453, i32 0, metadata !"", i32 0, i32 0, i64 0, i64 0, i64 0, i32 0, null, metadata !233, i32 0, i32 0} ; [ DW_TAG_subroutine_type ]
!233 = metadata !{null, metadata !217, metadata !222}
!234 = metadata !{i32 786478, i32 0, metadata !121, metadata !"operator=", metadata !"operator=", metadata !"_ZNSt6locale5_ImplaSERKS0_", metadata !117, i32 536, metadata !232, i1 false, i1 false, i32 0, i32 0, null, i32 257, i1 false, null, null, i32 0, metadata !88, i32 536} ; [ DW_TAG_subprogram ]
!235 = metadata !{i32 786478, i32 0, metadata !121, metadata !"_M_check_same_name", metadata !"_M_check_same_name", metadata !"_ZNSt6locale5_Impl18_M_check_same_nameEv", metadata !117, i32 539, metadata !236, i1 false, i1 false, i32 0, i32 0, null, i32 257, i1 false, null, null, i32 0, metadata !88, i32 539} ; [ DW_TAG_subprogram ]
!236 = metadata !{i32 786453, i32 0, metadata !"", i32 0, i32 0, i64 0, i64 0, i64 0, i32 0, null, metadata !237, i32 0, i32 0} ; [ DW_TAG_subroutine_type ]
!237 = metadata !{metadata !238, metadata !217}
!238 = metadata !{i32 786468, null, metadata !"bool", null, i32 0, i64 8, i64 8, i64 0, i32 0, i32 2} ; [ DW_TAG_base_type ]
!239 = metadata !{i32 786478, i32 0, metadata !121, metadata !"_M_replace_categories", metadata !"_M_replace_categories", metadata !"_ZNSt6locale5_Impl21_M_replace_categoriesEPKS0_i", metadata !117, i32 550, metadata !240, i1 false, i1 false, i32 0, i32 0, null, i32 257, i1 false, null, null, i32 0, metadata !88, i32 550} ; [ DW_TAG_subprogram ]
!240 = metadata !{i32 786453, i32 0, metadata !"", i32 0, i32 0, i64 0, i64 0, i64 0, i32 0, null, metadata !241, i32 0, i32 0} ; [ DW_TAG_subroutine_type ]
!241 = metadata !{null, metadata !217, metadata !242, metadata !243}
!242 = metadata !{i32 786447, null, metadata !"", null, i32 0, i64 32, i64 32, i64 0, i32 0, metadata !223} ; [ DW_TAG_pointer_type ]
!243 = metadata !{i32 786454, metadata !115, metadata !"category", metadata !117, i32 68, i64 0, i64 0, i64 0, i32 0, metadata !56} ; [ DW_TAG_typedef ]
!244 = metadata !{i32 786478, i32 0, metadata !121, metadata !"_M_replace_category", metadata !"_M_replace_category", metadata !"_ZNSt6locale5_Impl19_M_replace_categoryEPKS0_PKPKNS_2idE", metadata !117, i32 553, metadata !245, i1 false, i1 false, i32 0, i32 0, null, i32 257, i1 false, null, null, i32 0, metadata !88, i32 553} ; [ DW_TAG_subprogram ]
!245 = metadata !{i32 786453, i32 0, metadata !"", i32 0, i32 0, i64 0, i64 0, i64 0, i32 0, null, metadata !246, i32 0, i32 0} ; [ DW_TAG_subroutine_type ]
!246 = metadata !{null, metadata !217, metadata !242, metadata !247}
!247 = metadata !{i32 786447, null, metadata !"", null, i32 0, i64 32, i64 32, i64 0, i32 0, metadata !248} ; [ DW_TAG_pointer_type ]
!248 = metadata !{i32 786470, null, metadata !"", null, i32 0, i64 0, i64 0, i64 0, i32 0, metadata !249} ; [ DW_TAG_const_type ]
!249 = metadata !{i32 786447, null, metadata !"", null, i32 0, i64 32, i64 32, i64 0, i32 0, metadata !250} ; [ DW_TAG_pointer_type ]
!250 = metadata !{i32 786470, null, metadata !"", null, i32 0, i64 0, i64 0, i64 0, i32 0, metadata !251} ; [ DW_TAG_const_type ]
!251 = metadata !{i32 786434, metadata !115, metadata !"id", metadata !117, i32 436, i64 32, i64 32, i32 0, i32 0, null, metadata !252, i32 0, null, null} ; [ DW_TAG_class_type ]
!252 = metadata !{metadata !253, metadata !254, metadata !259, metadata !260, metadata !263, metadata !267, metadata !268}
!253 = metadata !{i32 786445, metadata !251, metadata !"_M_index", metadata !117, i32 453, i64 32, i64 32, i64 0, i32 1, metadata !139} ; [ DW_TAG_member ]
!254 = metadata !{i32 786478, i32 0, metadata !251, metadata !"operator=", metadata !"operator=", metadata !"_ZNSt6locale2idaSERKS0_", metadata !117, i32 459, metadata !255, i1 false, i1 false, i32 0, i32 0, null, i32 257, i1 false, null, null, i32 0, metadata !88, i32 459} ; [ DW_TAG_subprogram ]
!255 = metadata !{i32 786453, i32 0, metadata !"", i32 0, i32 0, i64 0, i64 0, i64 0, i32 0, null, metadata !256, i32 0, i32 0} ; [ DW_TAG_subroutine_type ]
!256 = metadata !{null, metadata !257, metadata !258}
!257 = metadata !{i32 786447, i32 0, metadata !"", i32 0, i32 0, i64 32, i64 32, i64 0, i32 64, metadata !251} ; [ DW_TAG_pointer_type ]
!258 = metadata !{i32 786448, null, null, null, i32 0, i64 0, i64 0, i64 0, i32 0, metadata !250} ; [ DW_TAG_reference_type ]
!259 = metadata !{i32 786478, i32 0, metadata !251, metadata !"id", metadata !"id", metadata !"", metadata !117, i32 461, metadata !255, i1 false, i1 false, i32 0, i32 0, null, i32 257, i1 false, null, null, i32 0, metadata !88, i32 461} ; [ DW_TAG_subprogram ]
!260 = metadata !{i32 786478, i32 0, metadata !251, metadata !"id", metadata !"id", metadata !"", metadata !117, i32 467, metadata !261, i1 false, i1 false, i32 0, i32 0, null, i32 256, i1 false, null, null, i32 0, metadata !88, i32 467} ; [ DW_TAG_subprogram ]
!261 = metadata !{i32 786453, i32 0, metadata !"", i32 0, i32 0, i64 0, i64 0, i64 0, i32 0, null, metadata !262, i32 0, i32 0} ; [ DW_TAG_subroutine_type ]
!262 = metadata !{null, metadata !257}
!263 = metadata !{i32 786478, i32 0, metadata !251, metadata !"_M_id", metadata !"_M_id", metadata !"_ZNKSt6locale2id5_M_idEv", metadata !117, i32 470, metadata !264, i1 false, i1 false, i32 0, i32 0, null, i32 256, i1 false, null, null, i32 0, metadata !88, i32 470} ; [ DW_TAG_subprogram ]
!264 = metadata !{i32 786453, i32 0, metadata !"", i32 0, i32 0, i64 0, i64 0, i64 0, i32 0, null, metadata !265, i32 0, i32 0} ; [ DW_TAG_subroutine_type ]
!265 = metadata !{metadata !139, metadata !266}
!266 = metadata !{i32 786447, i32 0, metadata !"", i32 0, i32 0, i64 32, i64 32, i64 0, i32 64, metadata !250} ; [ DW_TAG_pointer_type ]
!267 = metadata !{i32 786474, metadata !251, null, metadata !117, i32 0, i64 0, i64 0, i64 0, i32 0, metadata !121} ; [ DW_TAG_friend ]
!268 = metadata !{i32 786474, metadata !251, null, metadata !117, i32 0, i64 0, i64 0, i64 0, i32 0, metadata !115} ; [ DW_TAG_friend ]
!269 = metadata !{i32 786478, i32 0, metadata !121, metadata !"_M_replace_facet", metadata !"_M_replace_facet", metadata !"_ZNSt6locale5_Impl16_M_replace_facetEPKS0_PKNS_2idE", metadata !117, i32 556, metadata !270, i1 false, i1 false, i32 0, i32 0, null, i32 257, i1 false, null, null, i32 0, metadata !88, i32 556} ; [ DW_TAG_subprogram ]
!270 = metadata !{i32 786453, i32 0, metadata !"", i32 0, i32 0, i64 0, i64 0, i64 0, i32 0, null, metadata !271, i32 0, i32 0} ; [ DW_TAG_subroutine_type ]
!271 = metadata !{null, metadata !217, metadata !242, metadata !249}
!272 = metadata !{i32 786478, i32 0, metadata !121, metadata !"_M_install_facet", metadata !"_M_install_facet", metadata !"_ZNSt6locale5_Impl16_M_install_facetEPKNS_2idEPKNS_5facetE", metadata !117, i32 559, metadata !273, i1 false, i1 false, i32 0, i32 0, null, i32 257, i1 false, null, null, i32 0, metadata !88, i32 559} ; [ DW_TAG_subprogram ]
!273 = metadata !{i32 786453, i32 0, metadata !"", i32 0, i32 0, i64 0, i64 0, i64 0, i32 0, null, metadata !274, i32 0, i32 0} ; [ DW_TAG_subroutine_type ]
!274 = metadata !{null, metadata !217, metadata !249, metadata !126}
!275 = metadata !{i32 786478, i32 0, metadata !121, metadata !"_M_install_cache", metadata !"_M_install_cache", metadata !"_ZNSt6locale5_Impl16_M_install_cacheEPKNS_5facetEj", metadata !117, i32 567, metadata !276, i1 false, i1 false, i32 0, i32 0, null, i32 257, i1 false, null, null, i32 0, metadata !88, i32 567} ; [ DW_TAG_subprogram ]
!276 = metadata !{i32 786453, i32 0, metadata !"", i32 0, i32 0, i64 0, i64 0, i64 0, i32 0, null, metadata !277, i32 0, i32 0} ; [ DW_TAG_subroutine_type ]
!277 = metadata !{null, metadata !217, metadata !126, metadata !139}
!278 = metadata !{i32 786474, metadata !121, null, metadata !117, i32 0, i64 0, i64 0, i64 0, i32 0, metadata !128} ; [ DW_TAG_friend ]
!279 = metadata !{i32 786474, metadata !121, null, metadata !117, i32 0, i64 0, i64 0, i64 0, i32 0, metadata !115} ; [ DW_TAG_friend ]
!280 = metadata !{i32 786478, i32 0, metadata !115, metadata !"locale", metadata !"locale", metadata !"", metadata !117, i32 118, metadata !281, i1 false, i1 false, i32 0, i32 0, null, i32 256, i1 false, null, null, i32 0, metadata !88, i32 118} ; [ DW_TAG_subprogram ]
!281 = metadata !{i32 786453, i32 0, metadata !"", i32 0, i32 0, i64 0, i64 0, i64 0, i32 0, null, metadata !282, i32 0, i32 0} ; [ DW_TAG_subroutine_type ]
!282 = metadata !{null, metadata !283}
!283 = metadata !{i32 786447, i32 0, metadata !"", i32 0, i32 0, i64 32, i64 32, i64 0, i32 64, metadata !115} ; [ DW_TAG_pointer_type ]
!284 = metadata !{i32 786478, i32 0, metadata !115, metadata !"locale", metadata !"locale", metadata !"", metadata !117, i32 127, metadata !285, i1 false, i1 false, i32 0, i32 0, null, i32 256, i1 false, null, null, i32 0, metadata !88, i32 127} ; [ DW_TAG_subprogram ]
!285 = metadata !{i32 786453, i32 0, metadata !"", i32 0, i32 0, i64 0, i64 0, i64 0, i32 0, null, metadata !286, i32 0, i32 0} ; [ DW_TAG_subroutine_type ]
!286 = metadata !{null, metadata !283, metadata !287}
!287 = metadata !{i32 786448, null, null, null, i32 0, i64 0, i64 0, i64 0, i32 0, metadata !288} ; [ DW_TAG_reference_type ]
!288 = metadata !{i32 786470, null, metadata !"", null, i32 0, i64 0, i64 0, i64 0, i32 0, metadata !115} ; [ DW_TAG_const_type ]
!289 = metadata !{i32 786478, i32 0, metadata !115, metadata !"locale", metadata !"locale", metadata !"", metadata !117, i32 138, metadata !290, i1 false, i1 false, i32 0, i32 0, null, i32 384, i1 false, null, null, i32 0, metadata !88, i32 138} ; [ DW_TAG_subprogram ]
!290 = metadata !{i32 786453, i32 0, metadata !"", i32 0, i32 0, i64 0, i64 0, i64 0, i32 0, null, metadata !291, i32 0, i32 0} ; [ DW_TAG_subroutine_type ]
!291 = metadata !{null, metadata !283, metadata !172}
!292 = metadata !{i32 786478, i32 0, metadata !115, metadata !"locale", metadata !"locale", metadata !"", metadata !117, i32 152, metadata !293, i1 false, i1 false, i32 0, i32 0, null, i32 256, i1 false, null, null, i32 0, metadata !88, i32 152} ; [ DW_TAG_subprogram ]
!293 = metadata !{i32 786453, i32 0, metadata !"", i32 0, i32 0, i64 0, i64 0, i64 0, i32 0, null, metadata !294, i32 0, i32 0} ; [ DW_TAG_subroutine_type ]
!294 = metadata !{null, metadata !283, metadata !287, metadata !172, metadata !243}
!295 = metadata !{i32 786478, i32 0, metadata !115, metadata !"locale", metadata !"locale", metadata !"", metadata !117, i32 165, metadata !296, i1 false, i1 false, i32 0, i32 0, null, i32 256, i1 false, null, null, i32 0, metadata !88, i32 165} ; [ DW_TAG_subprogram ]
!296 = metadata !{i32 786453, i32 0, metadata !"", i32 0, i32 0, i64 0, i64 0, i64 0, i32 0, null, metadata !297, i32 0, i32 0} ; [ DW_TAG_subroutine_type ]
!297 = metadata !{null, metadata !283, metadata !287, metadata !287, metadata !243}
!298 = metadata !{i32 786478, i32 0, metadata !115, metadata !"~locale", metadata !"~locale", metadata !"", metadata !117, i32 181, metadata !281, i1 false, i1 false, i32 0, i32 0, null, i32 256, i1 false, null, null, i32 0, metadata !88, i32 181} ; [ DW_TAG_subprogram ]
!299 = metadata !{i32 786478, i32 0, metadata !115, metadata !"operator=", metadata !"operator=", metadata !"_ZNSt6localeaSERKS_", metadata !117, i32 192, metadata !300, i1 false, i1 false, i32 0, i32 0, null, i32 256, i1 false, null, null, i32 0, metadata !88, i32 192} ; [ DW_TAG_subprogram ]
!300 = metadata !{i32 786453, i32 0, metadata !"", i32 0, i32 0, i64 0, i64 0, i64 0, i32 0, null, metadata !301, i32 0, i32 0} ; [ DW_TAG_subroutine_type ]
!301 = metadata !{metadata !287, metadata !283, metadata !287}
!302 = metadata !{i32 786478, i32 0, metadata !115, metadata !"name", metadata !"name", metadata !"_ZNKSt6locale4nameEv", metadata !117, i32 216, metadata !303, i1 false, i1 false, i32 0, i32 0, null, i32 256, i1 false, null, null, i32 0, metadata !88, i32 216} ; [ DW_TAG_subprogram ]
!303 = metadata !{i32 786453, i32 0, metadata !"", i32 0, i32 0, i64 0, i64 0, i64 0, i32 0, null, metadata !304, i32 0, i32 0} ; [ DW_TAG_subroutine_type ]
!304 = metadata !{metadata !305, metadata !859}
!305 = metadata !{i32 786454, metadata !306, metadata !"string", metadata !117, i32 64, i64 0, i64 0, i64 0, i32 0, metadata !308} ; [ DW_TAG_typedef ]
!306 = metadata !{i32 786489, null, metadata !"std", metadata !307, i32 42} ; [ DW_TAG_namespace ]
!307 = metadata !{i32 786473, metadata !"/proj/xbuilds/2017.1_sdx_0419_1/installs/lin64/SDx/2017.1/Vivado_HLS/lnx64/tools/gcc/lib/gcc/x86_64-unknown-linux-gnu/4.6.3/../../../../include/c++/4.6.3/bits/stringfwd.h", metadata !"/proj/xhdhdstaff2/kalib/sprite_makefile_dev/apps/cpp/getting_started/dependence_inter/emu/_sds/vhls", null} ; [ DW_TAG_file_type ]
!308 = metadata !{i32 786434, metadata !306, metadata !"basic_string<char>", metadata !309, i32 1133, i64 32, i64 32, i32 0, i32 0, null, metadata !310, i32 0, null, metadata !803} ; [ DW_TAG_class_type ]
!309 = metadata !{i32 786473, metadata !"/proj/xbuilds/2017.1_sdx_0419_1/installs/lin64/SDx/2017.1/Vivado_HLS/lnx64/tools/gcc/lib/gcc/x86_64-unknown-linux-gnu/4.6.3/../../../../include/c++/4.6.3/bits/basic_string.tcc", metadata !"/proj/xhdhdstaff2/kalib/sprite_makefile_dev/apps/cpp/getting_started/dependence_inter/emu/_sds/vhls", null} ; [ DW_TAG_file_type ]
!310 = metadata !{metadata !311, metadata !384, metadata !389, metadata !393, metadata !442, metadata !448, metadata !449, metadata !452, metadata !455, metadata !458, metadata !461, metadata !464, metadata !467, metadata !468, metadata !471, metadata !474, metadata !479, metadata !482, metadata !485, metadata !488, metadata !491, metadata !492, metadata !493, metadata !494, metadata !497, metadata !501, metadata !504, metadata !507, metadata !510, metadata !513, metadata !516, metadata !520, metadata !550, metadata !551, metadata !555, metadata !558, metadata !561, metadata !564, metadata !567, metadata !570, metadata !573, metadata !574, metadata !575, metadata !580, metadata !585, metadata !586, metadata !587, metadata !588, metadata !589, metadata !590, metadata !591, metadata !594, metadata !595, metadata !596, metadata !599, metadata !602, metadata !603, metadata !604, metadata !605, metadata !606, metadata !609, metadata !614, metadata !619, metadata !620, metadata !623, metadata !626, metadata !627, metadata !628, metadata !629, metadata !630, metadata !631, metadata !632, metadata !633, metadata !634, metadata !637, metadata !640, metadata !641, metadata !644, metadata !645, metadata !648, metadata !649, metadata !650, metadata !651, metadata !652, metadata !653, metadata !654, metadata !655, metadata !658, metadata !661, metadata !664, metadata !667, metadata !670, metadata !673, metadata !676, metadata !679, metadata !682, metadata !685, metadata !688, metadata !691, metadata !694, metadata !697, metadata !700, metadata !703, metadata !706, metadata !709, metadata !712, metadata !715, metadata !718, metadata !721, metadata !724, metadata !727, metadata !730, metadata !731, metadata !732, metadata !735, metadata !736, metadata !739, metadata !742, metadata !745, metadata !746, metadata !750, metadata !753, metadata !756, metadata !759, metadata !762, metadata !763, metadata !764, metadata !765, metadata !766, metadata !767, metadata !768, metadata !769, metadata !770, metadata !771, metadata !772, metadata !773, metadata !774, metadata !775, metadata !776, metadata !777, metadata !778, metadata !779, metadata !780, metadata !781, metadata !782, metadata !785, metadata !788, metadata !791, metadata !794, metadata !797, metadata !800}
!311 = metadata !{i32 786445, metadata !308, metadata !"_M_dataplus", metadata !312, i32 283, i64 32, i64 32, i64 0, i32 1, metadata !313} ; [ DW_TAG_member ]
!312 = metadata !{i32 786473, metadata !"/proj/xbuilds/2017.1_sdx_0419_1/installs/lin64/SDx/2017.1/Vivado_HLS/lnx64/tools/gcc/lib/gcc/x86_64-unknown-linux-gnu/4.6.3/../../../../include/c++/4.6.3/bits/basic_string.h", metadata !"/proj/xhdhdstaff2/kalib/sprite_makefile_dev/apps/cpp/getting_started/dependence_inter/emu/_sds/vhls", null} ; [ DW_TAG_file_type ]
!313 = metadata !{i32 786434, metadata !308, metadata !"_Alloc_hider", metadata !312, i32 266, i64 32, i64 32, i32 0, i32 0, null, metadata !314, i32 0, null, null} ; [ DW_TAG_class_type ]
!314 = metadata !{metadata !315, metadata !379, metadata !380}
!315 = metadata !{i32 786460, metadata !313, null, metadata !312, i32 0, i64 0, i64 0, i64 0, i32 0, metadata !316} ; [ DW_TAG_inheritance ]
!316 = metadata !{i32 786434, metadata !306, metadata !"allocator<char>", metadata !317, i32 143, i64 8, i64 8, i32 0, i32 0, null, metadata !318, i32 0, null, metadata !377} ; [ DW_TAG_class_type ]
!317 = metadata !{i32 786473, metadata !"/proj/xbuilds/2017.1_sdx_0419_1/installs/lin64/SDx/2017.1/Vivado_HLS/lnx64/tools/gcc/lib/gcc/x86_64-unknown-linux-gnu/4.6.3/../../../../include/c++/4.6.3/bits/allocator.h", metadata !"/proj/xhdhdstaff2/kalib/sprite_makefile_dev/apps/cpp/getting_started/dependence_inter/emu/_sds/vhls", null} ; [ DW_TAG_file_type ]
!318 = metadata !{metadata !319, metadata !367, metadata !371, metadata !376}
!319 = metadata !{i32 786460, metadata !316, null, metadata !317, i32 0, i64 0, i64 0, i64 0, i32 0, metadata !320} ; [ DW_TAG_inheritance ]
!320 = metadata !{i32 786434, metadata !321, metadata !"new_allocator<char>", metadata !322, i32 54, i64 8, i64 8, i32 0, i32 0, null, metadata !323, i32 0, null, metadata !365} ; [ DW_TAG_class_type ]
!321 = metadata !{i32 786489, null, metadata !"__gnu_cxx", metadata !322, i32 38} ; [ DW_TAG_namespace ]
!322 = metadata !{i32 786473, metadata !"/proj/xbuilds/2017.1_sdx_0419_1/installs/lin64/SDx/2017.1/Vivado_HLS/lnx64/tools/gcc/lib/gcc/x86_64-unknown-linux-gnu/4.6.3/../../../../include/c++/4.6.3/ext/new_allocator.h", metadata !"/proj/xhdhdstaff2/kalib/sprite_makefile_dev/apps/cpp/getting_started/dependence_inter/emu/_sds/vhls", null} ; [ DW_TAG_file_type ]
!323 = metadata !{metadata !324, metadata !328, metadata !333, metadata !334, metadata !341, metadata !347, metadata !353, metadata !356, metadata !359, metadata !362}
!324 = metadata !{i32 786478, i32 0, metadata !320, metadata !"new_allocator", metadata !"new_allocator", metadata !"", metadata !322, i32 69, metadata !325, i1 false, i1 false, i32 0, i32 0, null, i32 256, i1 false, null, null, i32 0, metadata !88, i32 69} ; [ DW_TAG_subprogram ]
!325 = metadata !{i32 786453, i32 0, metadata !"", i32 0, i32 0, i64 0, i64 0, i64 0, i32 0, null, metadata !326, i32 0, i32 0} ; [ DW_TAG_subroutine_type ]
!326 = metadata !{null, metadata !327}
!327 = metadata !{i32 786447, i32 0, metadata !"", i32 0, i32 0, i64 32, i64 32, i64 0, i32 64, metadata !320} ; [ DW_TAG_pointer_type ]
!328 = metadata !{i32 786478, i32 0, metadata !320, metadata !"new_allocator", metadata !"new_allocator", metadata !"", metadata !322, i32 71, metadata !329, i1 false, i1 false, i32 0, i32 0, null, i32 256, i1 false, null, null, i32 0, metadata !88, i32 71} ; [ DW_TAG_subprogram ]
!329 = metadata !{i32 786453, i32 0, metadata !"", i32 0, i32 0, i64 0, i64 0, i64 0, i32 0, null, metadata !330, i32 0, i32 0} ; [ DW_TAG_subroutine_type ]
!330 = metadata !{null, metadata !327, metadata !331}
!331 = metadata !{i32 786448, null, null, null, i32 0, i64 0, i64 0, i64 0, i32 0, metadata !332} ; [ DW_TAG_reference_type ]
!332 = metadata !{i32 786470, null, metadata !"", null, i32 0, i64 0, i64 0, i64 0, i32 0, metadata !320} ; [ DW_TAG_const_type ]
!333 = metadata !{i32 786478, i32 0, metadata !320, metadata !"~new_allocator", metadata !"~new_allocator", metadata !"", metadata !322, i32 76, metadata !325, i1 false, i1 false, i32 0, i32 0, null, i32 256, i1 false, null, null, i32 0, metadata !88, i32 76} ; [ DW_TAG_subprogram ]
!334 = metadata !{i32 786478, i32 0, metadata !320, metadata !"address", metadata !"address", metadata !"_ZNK9__gnu_cxx13new_allocatorIcE7addressERc", metadata !322, i32 79, metadata !335, i1 false, i1 false, i32 0, i32 0, null, i32 256, i1 false, null, null, i32 0, metadata !88, i32 79} ; [ DW_TAG_subprogram ]
!335 = metadata !{i32 786453, i32 0, metadata !"", i32 0, i32 0, i64 0, i64 0, i64 0, i32 0, null, metadata !336, i32 0, i32 0} ; [ DW_TAG_subroutine_type ]
!336 = metadata !{metadata !337, metadata !338, metadata !339}
!337 = metadata !{i32 786454, metadata !320, metadata !"pointer", metadata !322, i32 59, i64 0, i64 0, i64 0, i32 0, metadata !213} ; [ DW_TAG_typedef ]
!338 = metadata !{i32 786447, i32 0, metadata !"", i32 0, i32 0, i64 32, i64 32, i64 0, i32 64, metadata !332} ; [ DW_TAG_pointer_type ]
!339 = metadata !{i32 786454, metadata !320, metadata !"reference", metadata !322, i32 61, i64 0, i64 0, i64 0, i32 0, metadata !340} ; [ DW_TAG_typedef ]
!340 = metadata !{i32 786448, null, null, null, i32 0, i64 0, i64 0, i64 0, i32 0, metadata !174} ; [ DW_TAG_reference_type ]
!341 = metadata !{i32 786478, i32 0, metadata !320, metadata !"address", metadata !"address", metadata !"_ZNK9__gnu_cxx13new_allocatorIcE7addressERKc", metadata !322, i32 82, metadata !342, i1 false, i1 false, i32 0, i32 0, null, i32 256, i1 false, null, null, i32 0, metadata !88, i32 82} ; [ DW_TAG_subprogram ]
!342 = metadata !{i32 786453, i32 0, metadata !"", i32 0, i32 0, i64 0, i64 0, i64 0, i32 0, null, metadata !343, i32 0, i32 0} ; [ DW_TAG_subroutine_type ]
!343 = metadata !{metadata !344, metadata !338, metadata !345}
!344 = metadata !{i32 786454, metadata !320, metadata !"const_pointer", metadata !322, i32 60, i64 0, i64 0, i64 0, i32 0, metadata !172} ; [ DW_TAG_typedef ]
!345 = metadata !{i32 786454, metadata !320, metadata !"const_reference", metadata !322, i32 62, i64 0, i64 0, i64 0, i32 0, metadata !346} ; [ DW_TAG_typedef ]
!346 = metadata !{i32 786448, null, null, null, i32 0, i64 0, i64 0, i64 0, i32 0, metadata !173} ; [ DW_TAG_reference_type ]
!347 = metadata !{i32 786478, i32 0, metadata !320, metadata !"allocate", metadata !"allocate", metadata !"_ZN9__gnu_cxx13new_allocatorIcE8allocateEjPKv", metadata !322, i32 87, metadata !348, i1 false, i1 false, i32 0, i32 0, null, i32 256, i1 false, null, null, i32 0, metadata !88, i32 87} ; [ DW_TAG_subprogram ]
!348 = metadata !{i32 786453, i32 0, metadata !"", i32 0, i32 0, i64 0, i64 0, i64 0, i32 0, null, metadata !349, i32 0, i32 0} ; [ DW_TAG_subroutine_type ]
!349 = metadata !{metadata !337, metadata !327, metadata !350, metadata !351}
!350 = metadata !{i32 786454, null, metadata !"size_type", metadata !322, i32 57, i64 0, i64 0, i64 0, i32 0, metadata !139} ; [ DW_TAG_typedef ]
!351 = metadata !{i32 786447, null, metadata !"", null, i32 0, i64 32, i64 32, i64 0, i32 0, metadata !352} ; [ DW_TAG_pointer_type ]
!352 = metadata !{i32 786470, null, metadata !"", null, i32 0, i64 0, i64 0, i64 0, i32 0, null} ; [ DW_TAG_const_type ]
!353 = metadata !{i32 786478, i32 0, metadata !320, metadata !"deallocate", metadata !"deallocate", metadata !"_ZN9__gnu_cxx13new_allocatorIcE10deallocateEPcj", metadata !322, i32 97, metadata !354, i1 false, i1 false, i32 0, i32 0, null, i32 256, i1 false, null, null, i32 0, metadata !88, i32 97} ; [ DW_TAG_subprogram ]
!354 = metadata !{i32 786453, i32 0, metadata !"", i32 0, i32 0, i64 0, i64 0, i64 0, i32 0, null, metadata !355, i32 0, i32 0} ; [ DW_TAG_subroutine_type ]
!355 = metadata !{null, metadata !327, metadata !337, metadata !350}
!356 = metadata !{i32 786478, i32 0, metadata !320, metadata !"max_size", metadata !"max_size", metadata !"_ZNK9__gnu_cxx13new_allocatorIcE8max_sizeEv", metadata !322, i32 101, metadata !357, i1 false, i1 false, i32 0, i32 0, null, i32 256, i1 false, null, null, i32 0, metadata !88, i32 101} ; [ DW_TAG_subprogram ]
!357 = metadata !{i32 786453, i32 0, metadata !"", i32 0, i32 0, i64 0, i64 0, i64 0, i32 0, null, metadata !358, i32 0, i32 0} ; [ DW_TAG_subroutine_type ]
!358 = metadata !{metadata !350, metadata !338}
!359 = metadata !{i32 786478, i32 0, metadata !320, metadata !"construct", metadata !"construct", metadata !"_ZN9__gnu_cxx13new_allocatorIcE9constructEPcRKc", metadata !322, i32 107, metadata !360, i1 false, i1 false, i32 0, i32 0, null, i32 256, i1 false, null, null, i32 0, metadata !88, i32 107} ; [ DW_TAG_subprogram ]
!360 = metadata !{i32 786453, i32 0, metadata !"", i32 0, i32 0, i64 0, i64 0, i64 0, i32 0, null, metadata !361, i32 0, i32 0} ; [ DW_TAG_subroutine_type ]
!361 = metadata !{null, metadata !327, metadata !337, metadata !346}
!362 = metadata !{i32 786478, i32 0, metadata !320, metadata !"destroy", metadata !"destroy", metadata !"_ZN9__gnu_cxx13new_allocatorIcE7destroyEPc", metadata !322, i32 118, metadata !363, i1 false, i1 false, i32 0, i32 0, null, i32 256, i1 false, null, null, i32 0, metadata !88, i32 118} ; [ DW_TAG_subprogram ]
!363 = metadata !{i32 786453, i32 0, metadata !"", i32 0, i32 0, i64 0, i64 0, i64 0, i32 0, null, metadata !364, i32 0, i32 0} ; [ DW_TAG_subroutine_type ]
!364 = metadata !{null, metadata !327, metadata !337}
!365 = metadata !{metadata !366}
!366 = metadata !{i32 786479, null, metadata !"_Tp", metadata !174, null, i32 0, i32 0} ; [ DW_TAG_template_type_parameter ]
!367 = metadata !{i32 786478, i32 0, metadata !316, metadata !"allocator", metadata !"allocator", metadata !"", metadata !317, i32 107, metadata !368, i1 false, i1 false, i32 0, i32 0, null, i32 256, i1 false, null, null, i32 0, metadata !88, i32 107} ; [ DW_TAG_subprogram ]
!368 = metadata !{i32 786453, i32 0, metadata !"", i32 0, i32 0, i64 0, i64 0, i64 0, i32 0, null, metadata !369, i32 0, i32 0} ; [ DW_TAG_subroutine_type ]
!369 = metadata !{null, metadata !370}
!370 = metadata !{i32 786447, i32 0, metadata !"", i32 0, i32 0, i64 32, i64 32, i64 0, i32 64, metadata !316} ; [ DW_TAG_pointer_type ]
!371 = metadata !{i32 786478, i32 0, metadata !316, metadata !"allocator", metadata !"allocator", metadata !"", metadata !317, i32 109, metadata !372, i1 false, i1 false, i32 0, i32 0, null, i32 256, i1 false, null, null, i32 0, metadata !88, i32 109} ; [ DW_TAG_subprogram ]
!372 = metadata !{i32 786453, i32 0, metadata !"", i32 0, i32 0, i64 0, i64 0, i64 0, i32 0, null, metadata !373, i32 0, i32 0} ; [ DW_TAG_subroutine_type ]
!373 = metadata !{null, metadata !370, metadata !374}
!374 = metadata !{i32 786448, null, null, null, i32 0, i64 0, i64 0, i64 0, i32 0, metadata !375} ; [ DW_TAG_reference_type ]
!375 = metadata !{i32 786470, null, metadata !"", null, i32 0, i64 0, i64 0, i64 0, i32 0, metadata !316} ; [ DW_TAG_const_type ]
!376 = metadata !{i32 786478, i32 0, metadata !316, metadata !"~allocator", metadata !"~allocator", metadata !"", metadata !317, i32 115, metadata !368, i1 false, i1 false, i32 0, i32 0, null, i32 256, i1 false, null, null, i32 0, metadata !88, i32 115} ; [ DW_TAG_subprogram ]
!377 = metadata !{metadata !378}
!378 = metadata !{i32 786479, null, metadata !"_Alloc", metadata !174, null, i32 0, i32 0} ; [ DW_TAG_template_type_parameter ]
!379 = metadata !{i32 786445, metadata !313, metadata !"_M_p", metadata !312, i32 271, i64 32, i64 32, i64 0, i32 0, metadata !213} ; [ DW_TAG_member ]
!380 = metadata !{i32 786478, i32 0, metadata !313, metadata !"_Alloc_hider", metadata !"_Alloc_hider", metadata !"", metadata !312, i32 268, metadata !381, i1 false, i1 false, i32 0, i32 0, null, i32 256, i1 false, null, null, i32 0, metadata !88, i32 268} ; [ DW_TAG_subprogram ]
!381 = metadata !{i32 786453, i32 0, metadata !"", i32 0, i32 0, i64 0, i64 0, i64 0, i32 0, null, metadata !382, i32 0, i32 0} ; [ DW_TAG_subroutine_type ]
!382 = metadata !{null, metadata !383, metadata !213, metadata !374}
!383 = metadata !{i32 786447, i32 0, metadata !"", i32 0, i32 0, i64 32, i64 32, i64 0, i32 64, metadata !313} ; [ DW_TAG_pointer_type ]
!384 = metadata !{i32 786478, i32 0, metadata !308, metadata !"_M_data", metadata !"_M_data", metadata !"_ZNKSs7_M_dataEv", metadata !312, i32 286, metadata !385, i1 false, i1 false, i32 0, i32 0, null, i32 257, i1 false, null, null, i32 0, metadata !88, i32 286} ; [ DW_TAG_subprogram ]
!385 = metadata !{i32 786453, i32 0, metadata !"", i32 0, i32 0, i64 0, i64 0, i64 0, i32 0, null, metadata !386, i32 0, i32 0} ; [ DW_TAG_subroutine_type ]
!386 = metadata !{metadata !213, metadata !387}
!387 = metadata !{i32 786447, i32 0, metadata !"", i32 0, i32 0, i64 32, i64 32, i64 0, i32 64, metadata !388} ; [ DW_TAG_pointer_type ]
!388 = metadata !{i32 786470, null, metadata !"", null, i32 0, i64 0, i64 0, i64 0, i32 0, metadata !308} ; [ DW_TAG_const_type ]
!389 = metadata !{i32 786478, i32 0, metadata !308, metadata !"_M_data", metadata !"_M_data", metadata !"_ZNSs7_M_dataEPc", metadata !312, i32 290, metadata !390, i1 false, i1 false, i32 0, i32 0, null, i32 257, i1 false, null, null, i32 0, metadata !88, i32 290} ; [ DW_TAG_subprogram ]
!390 = metadata !{i32 786453, i32 0, metadata !"", i32 0, i32 0, i64 0, i64 0, i64 0, i32 0, null, metadata !391, i32 0, i32 0} ; [ DW_TAG_subroutine_type ]
!391 = metadata !{metadata !213, metadata !392, metadata !213}
!392 = metadata !{i32 786447, i32 0, metadata !"", i32 0, i32 0, i64 32, i64 32, i64 0, i32 64, metadata !308} ; [ DW_TAG_pointer_type ]
!393 = metadata !{i32 786478, i32 0, metadata !308, metadata !"_M_rep", metadata !"_M_rep", metadata !"_ZNKSs6_M_repEv", metadata !312, i32 294, metadata !394, i1 false, i1 false, i32 0, i32 0, null, i32 257, i1 false, null, null, i32 0, metadata !88, i32 294} ; [ DW_TAG_subprogram ]
!394 = metadata !{i32 786453, i32 0, metadata !"", i32 0, i32 0, i64 0, i64 0, i64 0, i32 0, null, metadata !395, i32 0, i32 0} ; [ DW_TAG_subroutine_type ]
!395 = metadata !{metadata !396, metadata !387}
!396 = metadata !{i32 786447, null, metadata !"", null, i32 0, i64 32, i64 32, i64 0, i32 0, metadata !397} ; [ DW_TAG_pointer_type ]
!397 = metadata !{i32 786434, metadata !308, metadata !"_Rep", metadata !312, i32 149, i64 96, i64 32, i32 0, i32 0, null, metadata !398, i32 0, null, null} ; [ DW_TAG_class_type ]
!398 = metadata !{metadata !399, metadata !407, metadata !411, metadata !416, metadata !417, metadata !421, metadata !422, metadata !425, metadata !428, metadata !431, metadata !434, metadata !437, metadata !438, metadata !439}
!399 = metadata !{i32 786460, metadata !397, null, metadata !312, i32 0, i64 0, i64 0, i64 0, i32 0, metadata !400} ; [ DW_TAG_inheritance ]
!400 = metadata !{i32 786434, metadata !308, metadata !"_Rep_base", metadata !312, i32 142, i64 96, i64 32, i32 0, i32 0, null, metadata !401, i32 0, null, null} ; [ DW_TAG_class_type ]
!401 = metadata !{metadata !402, metadata !405, metadata !406}
!402 = metadata !{i32 786445, metadata !400, metadata !"_M_length", metadata !312, i32 144, i64 32, i64 32, i64 0, i32 0, metadata !403} ; [ DW_TAG_member ]
!403 = metadata !{i32 786454, metadata !308, metadata !"size_type", metadata !312, i32 115, i64 0, i64 0, i64 0, i32 0, metadata !404} ; [ DW_TAG_typedef ]
!404 = metadata !{i32 786454, metadata !316, metadata !"size_type", metadata !312, i32 95, i64 0, i64 0, i64 0, i32 0, metadata !139} ; [ DW_TAG_typedef ]
!405 = metadata !{i32 786445, metadata !400, metadata !"_M_capacity", metadata !312, i32 145, i64 32, i64 32, i64 32, i32 0, metadata !403} ; [ DW_TAG_member ]
!406 = metadata !{i32 786445, metadata !400, metadata !"_M_refcount", metadata !312, i32 146, i64 32, i64 32, i64 64, i32 0, metadata !83} ; [ DW_TAG_member ]
!407 = metadata !{i32 786478, i32 0, metadata !397, metadata !"_S_empty_rep", metadata !"_S_empty_rep", metadata !"_ZNSs4_Rep12_S_empty_repEv", metadata !312, i32 175, metadata !408, i1 false, i1 false, i32 0, i32 0, null, i32 256, i1 false, null, null, i32 0, metadata !88, i32 175} ; [ DW_TAG_subprogram ]
!408 = metadata !{i32 786453, i32 0, metadata !"", i32 0, i32 0, i64 0, i64 0, i64 0, i32 0, null, metadata !409, i32 0, i32 0} ; [ DW_TAG_subroutine_type ]
!409 = metadata !{metadata !410}
!410 = metadata !{i32 786448, null, null, null, i32 0, i64 0, i64 0, i64 0, i32 0, metadata !397} ; [ DW_TAG_reference_type ]
!411 = metadata !{i32 786478, i32 0, metadata !397, metadata !"_M_is_leaked", metadata !"_M_is_leaked", metadata !"_ZNKSs4_Rep12_M_is_leakedEv", metadata !312, i32 185, metadata !412, i1 false, i1 false, i32 0, i32 0, null, i32 256, i1 false, null, null, i32 0, metadata !88, i32 185} ; [ DW_TAG_subprogram ]
!412 = metadata !{i32 786453, i32 0, metadata !"", i32 0, i32 0, i64 0, i64 0, i64 0, i32 0, null, metadata !413, i32 0, i32 0} ; [ DW_TAG_subroutine_type ]
!413 = metadata !{metadata !238, metadata !414}
!414 = metadata !{i32 786447, i32 0, metadata !"", i32 0, i32 0, i64 32, i64 32, i64 0, i32 64, metadata !415} ; [ DW_TAG_pointer_type ]
!415 = metadata !{i32 786470, null, metadata !"", null, i32 0, i64 0, i64 0, i64 0, i32 0, metadata !397} ; [ DW_TAG_const_type ]
!416 = metadata !{i32 786478, i32 0, metadata !397, metadata !"_M_is_shared", metadata !"_M_is_shared", metadata !"_ZNKSs4_Rep12_M_is_sharedEv", metadata !312, i32 189, metadata !412, i1 false, i1 false, i32 0, i32 0, null, i32 256, i1 false, null, null, i32 0, metadata !88, i32 189} ; [ DW_TAG_subprogram ]
!417 = metadata !{i32 786478, i32 0, metadata !397, metadata !"_M_set_leaked", metadata !"_M_set_leaked", metadata !"_ZNSs4_Rep13_M_set_leakedEv", metadata !312, i32 193, metadata !418, i1 false, i1 false, i32 0, i32 0, null, i32 256, i1 false, null, null, i32 0, metadata !88, i32 193} ; [ DW_TAG_subprogram ]
!418 = metadata !{i32 786453, i32 0, metadata !"", i32 0, i32 0, i64 0, i64 0, i64 0, i32 0, null, metadata !419, i32 0, i32 0} ; [ DW_TAG_subroutine_type ]
!419 = metadata !{null, metadata !420}
!420 = metadata !{i32 786447, i32 0, metadata !"", i32 0, i32 0, i64 32, i64 32, i64 0, i32 64, metadata !397} ; [ DW_TAG_pointer_type ]
!421 = metadata !{i32 786478, i32 0, metadata !397, metadata !"_M_set_sharable", metadata !"_M_set_sharable", metadata !"_ZNSs4_Rep15_M_set_sharableEv", metadata !312, i32 197, metadata !418, i1 false, i1 false, i32 0, i32 0, null, i32 256, i1 false, null, null, i32 0, metadata !88, i32 197} ; [ DW_TAG_subprogram ]
!422 = metadata !{i32 786478, i32 0, metadata !397, metadata !"_M_set_length_and_sharable", metadata !"_M_set_length_and_sharable", metadata !"_ZNSs4_Rep26_M_set_length_and_sharableEj", metadata !312, i32 201, metadata !423, i1 false, i1 false, i32 0, i32 0, null, i32 256, i1 false, null, null, i32 0, metadata !88, i32 201} ; [ DW_TAG_subprogram ]
!423 = metadata !{i32 786453, i32 0, metadata !"", i32 0, i32 0, i64 0, i64 0, i64 0, i32 0, null, metadata !424, i32 0, i32 0} ; [ DW_TAG_subroutine_type ]
!424 = metadata !{null, metadata !420, metadata !403}
!425 = metadata !{i32 786478, i32 0, metadata !397, metadata !"_M_refdata", metadata !"_M_refdata", metadata !"_ZNSs4_Rep10_M_refdataEv", metadata !312, i32 216, metadata !426, i1 false, i1 false, i32 0, i32 0, null, i32 256, i1 false, null, null, i32 0, metadata !88, i32 216} ; [ DW_TAG_subprogram ]
!426 = metadata !{i32 786453, i32 0, metadata !"", i32 0, i32 0, i64 0, i64 0, i64 0, i32 0, null, metadata !427, i32 0, i32 0} ; [ DW_TAG_subroutine_type ]
!427 = metadata !{metadata !213, metadata !420}
!428 = metadata !{i32 786478, i32 0, metadata !397, metadata !"_M_grab", metadata !"_M_grab", metadata !"_ZNSs4_Rep7_M_grabERKSaIcES2_", metadata !312, i32 220, metadata !429, i1 false, i1 false, i32 0, i32 0, null, i32 256, i1 false, null, null, i32 0, metadata !88, i32 220} ; [ DW_TAG_subprogram ]
!429 = metadata !{i32 786453, i32 0, metadata !"", i32 0, i32 0, i64 0, i64 0, i64 0, i32 0, null, metadata !430, i32 0, i32 0} ; [ DW_TAG_subroutine_type ]
!430 = metadata !{metadata !213, metadata !420, metadata !374, metadata !374}
!431 = metadata !{i32 786478, i32 0, metadata !397, metadata !"_S_create", metadata !"_S_create", metadata !"_ZNSs4_Rep9_S_createEjjRKSaIcE", metadata !312, i32 228, metadata !432, i1 false, i1 false, i32 0, i32 0, null, i32 256, i1 false, null, null, i32 0, metadata !88, i32 228} ; [ DW_TAG_subprogram ]
!432 = metadata !{i32 786453, i32 0, metadata !"", i32 0, i32 0, i64 0, i64 0, i64 0, i32 0, null, metadata !433, i32 0, i32 0} ; [ DW_TAG_subroutine_type ]
!433 = metadata !{metadata !396, metadata !403, metadata !403, metadata !374}
!434 = metadata !{i32 786478, i32 0, metadata !397, metadata !"_M_dispose", metadata !"_M_dispose", metadata !"_ZNSs4_Rep10_M_disposeERKSaIcE", metadata !312, i32 231, metadata !435, i1 false, i1 false, i32 0, i32 0, null, i32 256, i1 false, null, null, i32 0, metadata !88, i32 231} ; [ DW_TAG_subprogram ]
!435 = metadata !{i32 786453, i32 0, metadata !"", i32 0, i32 0, i64 0, i64 0, i64 0, i32 0, null, metadata !436, i32 0, i32 0} ; [ DW_TAG_subroutine_type ]
!436 = metadata !{null, metadata !420, metadata !374}
!437 = metadata !{i32 786478, i32 0, metadata !397, metadata !"_M_destroy", metadata !"_M_destroy", metadata !"_ZNSs4_Rep10_M_destroyERKSaIcE", metadata !312, i32 249, metadata !435, i1 false, i1 false, i32 0, i32 0, null, i32 256, i1 false, null, null, i32 0, metadata !88, i32 249} ; [ DW_TAG_subprogram ]
!438 = metadata !{i32 786478, i32 0, metadata !397, metadata !"_M_refcopy", metadata !"_M_refcopy", metadata !"_ZNSs4_Rep10_M_refcopyEv", metadata !312, i32 252, metadata !426, i1 false, i1 false, i32 0, i32 0, null, i32 256, i1 false, null, null, i32 0, metadata !88, i32 252} ; [ DW_TAG_subprogram ]
!439 = metadata !{i32 786478, i32 0, metadata !397, metadata !"_M_clone", metadata !"_M_clone", metadata !"_ZNSs4_Rep8_M_cloneERKSaIcEj", metadata !312, i32 262, metadata !440, i1 false, i1 false, i32 0, i32 0, null, i32 256, i1 false, null, null, i32 0, metadata !88, i32 262} ; [ DW_TAG_subprogram ]
!440 = metadata !{i32 786453, i32 0, metadata !"", i32 0, i32 0, i64 0, i64 0, i64 0, i32 0, null, metadata !441, i32 0, i32 0} ; [ DW_TAG_subroutine_type ]
!441 = metadata !{metadata !213, metadata !420, metadata !374, metadata !403}
!442 = metadata !{i32 786478, i32 0, metadata !308, metadata !"_M_ibegin", metadata !"_M_ibegin", metadata !"_ZNKSs9_M_ibeginEv", metadata !312, i32 300, metadata !443, i1 false, i1 false, i32 0, i32 0, null, i32 257, i1 false, null, null, i32 0, metadata !88, i32 300} ; [ DW_TAG_subprogram ]
!443 = metadata !{i32 786453, i32 0, metadata !"", i32 0, i32 0, i64 0, i64 0, i64 0, i32 0, null, metadata !444, i32 0, i32 0} ; [ DW_TAG_subroutine_type ]
!444 = metadata !{metadata !445, metadata !387}
!445 = metadata !{i32 786454, metadata !308, metadata !"iterator", metadata !309, i32 121, i64 0, i64 0, i64 0, i32 0, metadata !446} ; [ DW_TAG_typedef ]
!446 = metadata !{i32 786434, null, metadata !"__normal_iterator<char *, std::basic_string<char> >", metadata !447, i32 702, i32 0, i32 0, i32 0, i32 4, null, null, i32 0} ; [ DW_TAG_class_type ]
!447 = metadata !{i32 786473, metadata !"/proj/xbuilds/2017.1_sdx_0419_1/installs/lin64/SDx/2017.1/Vivado_HLS/lnx64/tools/gcc/lib/gcc/x86_64-unknown-linux-gnu/4.6.3/../../../../include/c++/4.6.3/bits/stl_iterator.h", metadata !"/proj/xhdhdstaff2/kalib/sprite_makefile_dev/apps/cpp/getting_started/dependence_inter/emu/_sds/vhls", null} ; [ DW_TAG_file_type ]
!448 = metadata !{i32 786478, i32 0, metadata !308, metadata !"_M_iend", metadata !"_M_iend", metadata !"_ZNKSs7_M_iendEv", metadata !312, i32 304, metadata !443, i1 false, i1 false, i32 0, i32 0, null, i32 257, i1 false, null, null, i32 0, metadata !88, i32 304} ; [ DW_TAG_subprogram ]
!449 = metadata !{i32 786478, i32 0, metadata !308, metadata !"_M_leak", metadata !"_M_leak", metadata !"_ZNSs7_M_leakEv", metadata !312, i32 308, metadata !450, i1 false, i1 false, i32 0, i32 0, null, i32 257, i1 false, null, null, i32 0, metadata !88, i32 308} ; [ DW_TAG_subprogram ]
!450 = metadata !{i32 786453, i32 0, metadata !"", i32 0, i32 0, i64 0, i64 0, i64 0, i32 0, null, metadata !451, i32 0, i32 0} ; [ DW_TAG_subroutine_type ]
!451 = metadata !{null, metadata !392}
!452 = metadata !{i32 786478, i32 0, metadata !308, metadata !"_M_check", metadata !"_M_check", metadata !"_ZNKSs8_M_checkEjPKc", metadata !312, i32 315, metadata !453, i1 false, i1 false, i32 0, i32 0, null, i32 257, i1 false, null, null, i32 0, metadata !88, i32 315} ; [ DW_TAG_subprogram ]
!453 = metadata !{i32 786453, i32 0, metadata !"", i32 0, i32 0, i64 0, i64 0, i64 0, i32 0, null, metadata !454, i32 0, i32 0} ; [ DW_TAG_subroutine_type ]
!454 = metadata !{metadata !403, metadata !387, metadata !403, metadata !172}
!455 = metadata !{i32 786478, i32 0, metadata !308, metadata !"_M_check_length", metadata !"_M_check_length", metadata !"_ZNKSs15_M_check_lengthEjjPKc", metadata !312, i32 323, metadata !456, i1 false, i1 false, i32 0, i32 0, null, i32 257, i1 false, null, null, i32 0, metadata !88, i32 323} ; [ DW_TAG_subprogram ]
!456 = metadata !{i32 786453, i32 0, metadata !"", i32 0, i32 0, i64 0, i64 0, i64 0, i32 0, null, metadata !457, i32 0, i32 0} ; [ DW_TAG_subroutine_type ]
!457 = metadata !{null, metadata !387, metadata !403, metadata !403, metadata !172}
!458 = metadata !{i32 786478, i32 0, metadata !308, metadata !"_M_limit", metadata !"_M_limit", metadata !"_ZNKSs8_M_limitEjj", metadata !312, i32 331, metadata !459, i1 false, i1 false, i32 0, i32 0, null, i32 257, i1 false, null, null, i32 0, metadata !88, i32 331} ; [ DW_TAG_subprogram ]
!459 = metadata !{i32 786453, i32 0, metadata !"", i32 0, i32 0, i64 0, i64 0, i64 0, i32 0, null, metadata !460, i32 0, i32 0} ; [ DW_TAG_subroutine_type ]
!460 = metadata !{metadata !403, metadata !387, metadata !403, metadata !403}
!461 = metadata !{i32 786478, i32 0, metadata !308, metadata !"_M_disjunct", metadata !"_M_disjunct", metadata !"_ZNKSs11_M_disjunctEPKc", metadata !312, i32 339, metadata !462, i1 false, i1 false, i32 0, i32 0, null, i32 257, i1 false, null, null, i32 0, metadata !88, i32 339} ; [ DW_TAG_subprogram ]
!462 = metadata !{i32 786453, i32 0, metadata !"", i32 0, i32 0, i64 0, i64 0, i64 0, i32 0, null, metadata !463, i32 0, i32 0} ; [ DW_TAG_subroutine_type ]
!463 = metadata !{metadata !238, metadata !387, metadata !172}
!464 = metadata !{i32 786478, i32 0, metadata !308, metadata !"_M_copy", metadata !"_M_copy", metadata !"_ZNSs7_M_copyEPcPKcj", metadata !312, i32 348, metadata !465, i1 false, i1 false, i32 0, i32 0, null, i32 257, i1 false, null, null, i32 0, metadata !88, i32 348} ; [ DW_TAG_subprogram ]
!465 = metadata !{i32 786453, i32 0, metadata !"", i32 0, i32 0, i64 0, i64 0, i64 0, i32 0, null, metadata !466, i32 0, i32 0} ; [ DW_TAG_subroutine_type ]
!466 = metadata !{null, metadata !213, metadata !172, metadata !403}
!467 = metadata !{i32 786478, i32 0, metadata !308, metadata !"_M_move", metadata !"_M_move", metadata !"_ZNSs7_M_moveEPcPKcj", metadata !312, i32 357, metadata !465, i1 false, i1 false, i32 0, i32 0, null, i32 257, i1 false, null, null, i32 0, metadata !88, i32 357} ; [ DW_TAG_subprogram ]
!468 = metadata !{i32 786478, i32 0, metadata !308, metadata !"_M_assign", metadata !"_M_assign", metadata !"_ZNSs9_M_assignEPcjc", metadata !312, i32 366, metadata !469, i1 false, i1 false, i32 0, i32 0, null, i32 257, i1 false, null, null, i32 0, metadata !88, i32 366} ; [ DW_TAG_subprogram ]
!469 = metadata !{i32 786453, i32 0, metadata !"", i32 0, i32 0, i64 0, i64 0, i64 0, i32 0, null, metadata !470, i32 0, i32 0} ; [ DW_TAG_subroutine_type ]
!470 = metadata !{null, metadata !213, metadata !403, metadata !174}
!471 = metadata !{i32 786478, i32 0, metadata !308, metadata !"_S_copy_chars", metadata !"_S_copy_chars", metadata !"_ZNSs13_S_copy_charsEPcN9__gnu_cxx17__normal_iteratorIS_SsEES2_", metadata !312, i32 385, metadata !472, i1 false, i1 false, i32 0, i32 0, null, i32 257, i1 false, null, null, i32 0, metadata !88, i32 385} ; [ DW_TAG_subprogram ]
!472 = metadata !{i32 786453, i32 0, metadata !"", i32 0, i32 0, i64 0, i64 0, i64 0, i32 0, null, metadata !473, i32 0, i32 0} ; [ DW_TAG_subroutine_type ]
!473 = metadata !{null, metadata !213, metadata !445, metadata !445}
!474 = metadata !{i32 786478, i32 0, metadata !308, metadata !"_S_copy_chars", metadata !"_S_copy_chars", metadata !"_ZNSs13_S_copy_charsEPcN9__gnu_cxx17__normal_iteratorIPKcSsEES4_", metadata !312, i32 389, metadata !475, i1 false, i1 false, i32 0, i32 0, null, i32 257, i1 false, null, null, i32 0, metadata !88, i32 389} ; [ DW_TAG_subprogram ]
!475 = metadata !{i32 786453, i32 0, metadata !"", i32 0, i32 0, i64 0, i64 0, i64 0, i32 0, null, metadata !476, i32 0, i32 0} ; [ DW_TAG_subroutine_type ]
!476 = metadata !{null, metadata !213, metadata !477, metadata !477}
!477 = metadata !{i32 786454, metadata !308, metadata !"const_iterator", metadata !309, i32 123, i64 0, i64 0, i64 0, i32 0, metadata !478} ; [ DW_TAG_typedef ]
!478 = metadata !{i32 786434, null, metadata !"__normal_iterator<const char *, std::basic_string<char> >", metadata !447, i32 702, i32 0, i32 0, i32 0, i32 4, null, null, i32 0} ; [ DW_TAG_class_type ]
!479 = metadata !{i32 786478, i32 0, metadata !308, metadata !"_S_copy_chars", metadata !"_S_copy_chars", metadata !"_ZNSs13_S_copy_charsEPcS_S_", metadata !312, i32 393, metadata !480, i1 false, i1 false, i32 0, i32 0, null, i32 257, i1 false, null, null, i32 0, metadata !88, i32 393} ; [ DW_TAG_subprogram ]
!480 = metadata !{i32 786453, i32 0, metadata !"", i32 0, i32 0, i64 0, i64 0, i64 0, i32 0, null, metadata !481, i32 0, i32 0} ; [ DW_TAG_subroutine_type ]
!481 = metadata !{null, metadata !213, metadata !213, metadata !213}
!482 = metadata !{i32 786478, i32 0, metadata !308, metadata !"_S_copy_chars", metadata !"_S_copy_chars", metadata !"_ZNSs13_S_copy_charsEPcPKcS1_", metadata !312, i32 397, metadata !483, i1 false, i1 false, i32 0, i32 0, null, i32 257, i1 false, null, null, i32 0, metadata !88, i32 397} ; [ DW_TAG_subprogram ]
!483 = metadata !{i32 786453, i32 0, metadata !"", i32 0, i32 0, i64 0, i64 0, i64 0, i32 0, null, metadata !484, i32 0, i32 0} ; [ DW_TAG_subroutine_type ]
!484 = metadata !{null, metadata !213, metadata !172, metadata !172}
!485 = metadata !{i32 786478, i32 0, metadata !308, metadata !"_S_compare", metadata !"_S_compare", metadata !"_ZNSs10_S_compareEjj", metadata !312, i32 401, metadata !486, i1 false, i1 false, i32 0, i32 0, null, i32 257, i1 false, null, null, i32 0, metadata !88, i32 401} ; [ DW_TAG_subprogram ]
!486 = metadata !{i32 786453, i32 0, metadata !"", i32 0, i32 0, i64 0, i64 0, i64 0, i32 0, null, metadata !487, i32 0, i32 0} ; [ DW_TAG_subroutine_type ]
!487 = metadata !{metadata !56, metadata !403, metadata !403}
!488 = metadata !{i32 786478, i32 0, metadata !308, metadata !"_M_mutate", metadata !"_M_mutate", metadata !"_ZNSs9_M_mutateEjjj", metadata !312, i32 414, metadata !489, i1 false, i1 false, i32 0, i32 0, null, i32 257, i1 false, null, null, i32 0, metadata !88, i32 414} ; [ DW_TAG_subprogram ]
!489 = metadata !{i32 786453, i32 0, metadata !"", i32 0, i32 0, i64 0, i64 0, i64 0, i32 0, null, metadata !490, i32 0, i32 0} ; [ DW_TAG_subroutine_type ]
!490 = metadata !{null, metadata !392, metadata !403, metadata !403, metadata !403}
!491 = metadata !{i32 786478, i32 0, metadata !308, metadata !"_M_leak_hard", metadata !"_M_leak_hard", metadata !"_ZNSs12_M_leak_hardEv", metadata !312, i32 417, metadata !450, i1 false, i1 false, i32 0, i32 0, null, i32 257, i1 false, null, null, i32 0, metadata !88, i32 417} ; [ DW_TAG_subprogram ]
!492 = metadata !{i32 786478, i32 0, metadata !308, metadata !"_S_empty_rep", metadata !"_S_empty_rep", metadata !"_ZNSs12_S_empty_repEv", metadata !312, i32 420, metadata !408, i1 false, i1 false, i32 0, i32 0, null, i32 257, i1 false, null, null, i32 0, metadata !88, i32 420} ; [ DW_TAG_subprogram ]
!493 = metadata !{i32 786478, i32 0, metadata !308, metadata !"basic_string", metadata !"basic_string", metadata !"", metadata !312, i32 431, metadata !450, i1 false, i1 false, i32 0, i32 0, null, i32 256, i1 false, null, null, i32 0, metadata !88, i32 431} ; [ DW_TAG_subprogram ]
!494 = metadata !{i32 786478, i32 0, metadata !308, metadata !"basic_string", metadata !"basic_string", metadata !"", metadata !312, i32 442, metadata !495, i1 false, i1 false, i32 0, i32 0, null, i32 384, i1 false, null, null, i32 0, metadata !88, i32 442} ; [ DW_TAG_subprogram ]
!495 = metadata !{i32 786453, i32 0, metadata !"", i32 0, i32 0, i64 0, i64 0, i64 0, i32 0, null, metadata !496, i32 0, i32 0} ; [ DW_TAG_subroutine_type ]
!496 = metadata !{null, metadata !392, metadata !374}
!497 = metadata !{i32 786478, i32 0, metadata !308, metadata !"basic_string", metadata !"basic_string", metadata !"", metadata !312, i32 449, metadata !498, i1 false, i1 false, i32 0, i32 0, null, i32 256, i1 false, null, null, i32 0, metadata !88, i32 449} ; [ DW_TAG_subprogram ]
!498 = metadata !{i32 786453, i32 0, metadata !"", i32 0, i32 0, i64 0, i64 0, i64 0, i32 0, null, metadata !499, i32 0, i32 0} ; [ DW_TAG_subroutine_type ]
!499 = metadata !{null, metadata !392, metadata !500}
!500 = metadata !{i32 786448, null, null, null, i32 0, i64 0, i64 0, i64 0, i32 0, metadata !388} ; [ DW_TAG_reference_type ]
!501 = metadata !{i32 786478, i32 0, metadata !308, metadata !"basic_string", metadata !"basic_string", metadata !"", metadata !312, i32 456, metadata !502, i1 false, i1 false, i32 0, i32 0, null, i32 256, i1 false, null, null, i32 0, metadata !88, i32 456} ; [ DW_TAG_subprogram ]
!502 = metadata !{i32 786453, i32 0, metadata !"", i32 0, i32 0, i64 0, i64 0, i64 0, i32 0, null, metadata !503, i32 0, i32 0} ; [ DW_TAG_subroutine_type ]
!503 = metadata !{null, metadata !392, metadata !500, metadata !403, metadata !403}
!504 = metadata !{i32 786478, i32 0, metadata !308, metadata !"basic_string", metadata !"basic_string", metadata !"", metadata !312, i32 465, metadata !505, i1 false, i1 false, i32 0, i32 0, null, i32 256, i1 false, null, null, i32 0, metadata !88, i32 465} ; [ DW_TAG_subprogram ]
!505 = metadata !{i32 786453, i32 0, metadata !"", i32 0, i32 0, i64 0, i64 0, i64 0, i32 0, null, metadata !506, i32 0, i32 0} ; [ DW_TAG_subroutine_type ]
!506 = metadata !{null, metadata !392, metadata !500, metadata !403, metadata !403, metadata !374}
!507 = metadata !{i32 786478, i32 0, metadata !308, metadata !"basic_string", metadata !"basic_string", metadata !"", metadata !312, i32 477, metadata !508, i1 false, i1 false, i32 0, i32 0, null, i32 256, i1 false, null, null, i32 0, metadata !88, i32 477} ; [ DW_TAG_subprogram ]
!508 = metadata !{i32 786453, i32 0, metadata !"", i32 0, i32 0, i64 0, i64 0, i64 0, i32 0, null, metadata !509, i32 0, i32 0} ; [ DW_TAG_subroutine_type ]
!509 = metadata !{null, metadata !392, metadata !172, metadata !403, metadata !374}
!510 = metadata !{i32 786478, i32 0, metadata !308, metadata !"basic_string", metadata !"basic_string", metadata !"", metadata !312, i32 484, metadata !511, i1 false, i1 false, i32 0, i32 0, null, i32 256, i1 false, null, null, i32 0, metadata !88, i32 484} ; [ DW_TAG_subprogram ]
!511 = metadata !{i32 786453, i32 0, metadata !"", i32 0, i32 0, i64 0, i64 0, i64 0, i32 0, null, metadata !512, i32 0, i32 0} ; [ DW_TAG_subroutine_type ]
!512 = metadata !{null, metadata !392, metadata !172, metadata !374}
!513 = metadata !{i32 786478, i32 0, metadata !308, metadata !"basic_string", metadata !"basic_string", metadata !"", metadata !312, i32 491, metadata !514, i1 false, i1 false, i32 0, i32 0, null, i32 256, i1 false, null, null, i32 0, metadata !88, i32 491} ; [ DW_TAG_subprogram ]
!514 = metadata !{i32 786453, i32 0, metadata !"", i32 0, i32 0, i64 0, i64 0, i64 0, i32 0, null, metadata !515, i32 0, i32 0} ; [ DW_TAG_subroutine_type ]
!515 = metadata !{null, metadata !392, metadata !403, metadata !174, metadata !374}
!516 = metadata !{i32 786478, i32 0, metadata !308, metadata !"basic_string", metadata !"basic_string", metadata !"", metadata !312, i32 501, metadata !517, i1 false, i1 false, i32 0, i32 0, null, i32 256, i1 false, null, null, i32 0, metadata !88, i32 501} ; [ DW_TAG_subprogram ]
!517 = metadata !{i32 786453, i32 0, metadata !"", i32 0, i32 0, i64 0, i64 0, i64 0, i32 0, null, metadata !518, i32 0, i32 0} ; [ DW_TAG_subroutine_type ]
!518 = metadata !{null, metadata !392, metadata !519}
!519 = metadata !{i32 786447, null, metadata !"", null, i32 0, i64 32, i64 32, i64 0, i32 0, metadata !308} ; [ DW_TAG_pointer_type ]
!520 = metadata !{i32 786478, i32 0, metadata !308, metadata !"basic_string", metadata !"basic_string", metadata !"", metadata !312, i32 516, metadata !521, i1 false, i1 false, i32 0, i32 0, null, i32 256, i1 false, null, null, i32 0, metadata !88, i32 516} ; [ DW_TAG_subprogram ]
!521 = metadata !{i32 786453, i32 0, metadata !"", i32 0, i32 0, i64 0, i64 0, i64 0, i32 0, null, metadata !522, i32 0, i32 0} ; [ DW_TAG_subroutine_type ]
!522 = metadata !{null, metadata !392, metadata !523, metadata !374}
!523 = metadata !{i32 786434, metadata !524, metadata !"initializer_list<char>", metadata !525, i32 44, i64 64, i64 32, i32 0, i32 0, null, metadata !526, i32 0, null, metadata !548} ; [ DW_TAG_class_type ]
!524 = metadata !{i32 786489, null, metadata !"std", metadata !525, i32 40} ; [ DW_TAG_namespace ]
!525 = metadata !{i32 786473, metadata !"/proj/xbuilds/2017.1_sdx_0419_1/installs/lin64/SDx/2017.1/Vivado_HLS/lnx64/tools/gcc/lib/gcc/x86_64-unknown-linux-gnu/4.6.3/../../../../include/c++/4.6.3/initializer_list", metadata !"/proj/xhdhdstaff2/kalib/sprite_makefile_dev/apps/cpp/getting_started/dependence_inter/emu/_sds/vhls", null} ; [ DW_TAG_file_type ]
!526 = metadata !{metadata !527, metadata !529, metadata !531, metadata !536, metadata !539, metadata !544, metadata !547}
!527 = metadata !{i32 786445, metadata !523, metadata !"_M_array", metadata !525, i32 55, i64 32, i64 32, i64 0, i32 1, metadata !528} ; [ DW_TAG_member ]
!528 = metadata !{i32 786454, metadata !523, metadata !"iterator", metadata !525, i32 51, i64 0, i64 0, i64 0, i32 0, metadata !172} ; [ DW_TAG_typedef ]
!529 = metadata !{i32 786445, metadata !523, metadata !"_M_len", metadata !525, i32 56, i64 32, i64 32, i64 32, i32 1, metadata !530} ; [ DW_TAG_member ]
!530 = metadata !{i32 786454, null, metadata !"size_type", metadata !525, i32 50, i64 0, i64 0, i64 0, i32 0, metadata !139} ; [ DW_TAG_typedef ]
!531 = metadata !{i32 786478, i32 0, metadata !523, metadata !"initializer_list", metadata !"initializer_list", metadata !"", metadata !525, i32 59, metadata !532, i1 false, i1 false, i32 0, i32 0, null, i32 257, i1 false, null, null, i32 0, metadata !88, i32 59} ; [ DW_TAG_subprogram ]
!532 = metadata !{i32 786453, i32 0, metadata !"", i32 0, i32 0, i64 0, i64 0, i64 0, i32 0, null, metadata !533, i32 0, i32 0} ; [ DW_TAG_subroutine_type ]
!533 = metadata !{null, metadata !534, metadata !535, metadata !530}
!534 = metadata !{i32 786447, i32 0, metadata !"", i32 0, i32 0, i64 32, i64 32, i64 0, i32 64, metadata !523} ; [ DW_TAG_pointer_type ]
!535 = metadata !{i32 786454, metadata !523, metadata !"const_iterator", metadata !525, i32 52, i64 0, i64 0, i64 0, i32 0, metadata !172} ; [ DW_TAG_typedef ]
!536 = metadata !{i32 786478, i32 0, metadata !523, metadata !"initializer_list", metadata !"initializer_list", metadata !"", metadata !525, i32 63, metadata !537, i1 false, i1 false, i32 0, i32 0, null, i32 256, i1 false, null, null, i32 0, metadata !88, i32 63} ; [ DW_TAG_subprogram ]
!537 = metadata !{i32 786453, i32 0, metadata !"", i32 0, i32 0, i64 0, i64 0, i64 0, i32 0, null, metadata !538, i32 0, i32 0} ; [ DW_TAG_subroutine_type ]
!538 = metadata !{null, metadata !534}
!539 = metadata !{i32 786478, i32 0, metadata !523, metadata !"size", metadata !"size", metadata !"_ZNKSt16initializer_listIcE4sizeEv", metadata !525, i32 67, metadata !540, i1 false, i1 false, i32 0, i32 0, null, i32 256, i1 false, null, null, i32 0, metadata !88, i32 67} ; [ DW_TAG_subprogram ]
!540 = metadata !{i32 786453, i32 0, metadata !"", i32 0, i32 0, i64 0, i64 0, i64 0, i32 0, null, metadata !541, i32 0, i32 0} ; [ DW_TAG_subroutine_type ]
!541 = metadata !{metadata !530, metadata !542}
!542 = metadata !{i32 786447, i32 0, metadata !"", i32 0, i32 0, i64 32, i64 32, i64 0, i32 64, metadata !543} ; [ DW_TAG_pointer_type ]
!543 = metadata !{i32 786470, null, metadata !"", null, i32 0, i64 0, i64 0, i64 0, i32 0, metadata !523} ; [ DW_TAG_const_type ]
!544 = metadata !{i32 786478, i32 0, metadata !523, metadata !"begin", metadata !"begin", metadata !"_ZNKSt16initializer_listIcE5beginEv", metadata !525, i32 71, metadata !545, i1 false, i1 false, i32 0, i32 0, null, i32 256, i1 false, null, null, i32 0, metadata !88, i32 71} ; [ DW_TAG_subprogram ]
!545 = metadata !{i32 786453, i32 0, metadata !"", i32 0, i32 0, i64 0, i64 0, i64 0, i32 0, null, metadata !546, i32 0, i32 0} ; [ DW_TAG_subroutine_type ]
!546 = metadata !{metadata !535, metadata !542}
!547 = metadata !{i32 786478, i32 0, metadata !523, metadata !"end", metadata !"end", metadata !"_ZNKSt16initializer_listIcE3endEv", metadata !525, i32 75, metadata !545, i1 false, i1 false, i32 0, i32 0, null, i32 256, i1 false, null, null, i32 0, metadata !88, i32 75} ; [ DW_TAG_subprogram ]
!548 = metadata !{metadata !549}
!549 = metadata !{i32 786479, null, metadata !"_E", metadata !174, null, i32 0, i32 0} ; [ DW_TAG_template_type_parameter ]
!550 = metadata !{i32 786478, i32 0, metadata !308, metadata !"~basic_string", metadata !"~basic_string", metadata !"", metadata !312, i32 532, metadata !450, i1 false, i1 false, i32 0, i32 0, null, i32 256, i1 false, null, null, i32 0, metadata !88, i32 532} ; [ DW_TAG_subprogram ]
!551 = metadata !{i32 786478, i32 0, metadata !308, metadata !"operator=", metadata !"operator=", metadata !"_ZNSsaSERKSs", metadata !312, i32 540, metadata !552, i1 false, i1 false, i32 0, i32 0, null, i32 256, i1 false, null, null, i32 0, metadata !88, i32 540} ; [ DW_TAG_subprogram ]
!552 = metadata !{i32 786453, i32 0, metadata !"", i32 0, i32 0, i64 0, i64 0, i64 0, i32 0, null, metadata !553, i32 0, i32 0} ; [ DW_TAG_subroutine_type ]
!553 = metadata !{metadata !554, metadata !392, metadata !500}
!554 = metadata !{i32 786448, null, null, null, i32 0, i64 0, i64 0, i64 0, i32 0, metadata !308} ; [ DW_TAG_reference_type ]
!555 = metadata !{i32 786478, i32 0, metadata !308, metadata !"operator=", metadata !"operator=", metadata !"_ZNSsaSEPKc", metadata !312, i32 548, metadata !556, i1 false, i1 false, i32 0, i32 0, null, i32 256, i1 false, null, null, i32 0, metadata !88, i32 548} ; [ DW_TAG_subprogram ]
!556 = metadata !{i32 786453, i32 0, metadata !"", i32 0, i32 0, i64 0, i64 0, i64 0, i32 0, null, metadata !557, i32 0, i32 0} ; [ DW_TAG_subroutine_type ]
!557 = metadata !{metadata !554, metadata !392, metadata !172}
!558 = metadata !{i32 786478, i32 0, metadata !308, metadata !"operator=", metadata !"operator=", metadata !"_ZNSsaSEc", metadata !312, i32 559, metadata !559, i1 false, i1 false, i32 0, i32 0, null, i32 256, i1 false, null, null, i32 0, metadata !88, i32 559} ; [ DW_TAG_subprogram ]
!559 = metadata !{i32 786453, i32 0, metadata !"", i32 0, i32 0, i64 0, i64 0, i64 0, i32 0, null, metadata !560, i32 0, i32 0} ; [ DW_TAG_subroutine_type ]
!560 = metadata !{metadata !554, metadata !392, metadata !174}
!561 = metadata !{i32 786478, i32 0, metadata !308, metadata !"operator=", metadata !"operator=", metadata !"_ZNSsaSEOSs", metadata !312, i32 574, metadata !562, i1 false, i1 false, i32 0, i32 0, null, i32 256, i1 false, null, null, i32 0, metadata !88, i32 574} ; [ DW_TAG_subprogram ]
!562 = metadata !{i32 786453, i32 0, metadata !"", i32 0, i32 0, i64 0, i64 0, i64 0, i32 0, null, metadata !563, i32 0, i32 0} ; [ DW_TAG_subroutine_type ]
!563 = metadata !{metadata !554, metadata !392, metadata !519}
!564 = metadata !{i32 786478, i32 0, metadata !308, metadata !"operator=", metadata !"operator=", metadata !"_ZNSsaSESt16initializer_listIcE", metadata !312, i32 586, metadata !565, i1 false, i1 false, i32 0, i32 0, null, i32 256, i1 false, null, null, i32 0, metadata !88, i32 586} ; [ DW_TAG_subprogram ]
!565 = metadata !{i32 786453, i32 0, metadata !"", i32 0, i32 0, i64 0, i64 0, i64 0, i32 0, null, metadata !566, i32 0, i32 0} ; [ DW_TAG_subroutine_type ]
!566 = metadata !{metadata !554, metadata !392, metadata !523}
!567 = metadata !{i32 786478, i32 0, metadata !308, metadata !"begin", metadata !"begin", metadata !"_ZNSs5beginEv", metadata !312, i32 599, metadata !568, i1 false, i1 false, i32 0, i32 0, null, i32 256, i1 false, null, null, i32 0, metadata !88, i32 599} ; [ DW_TAG_subprogram ]
!568 = metadata !{i32 786453, i32 0, metadata !"", i32 0, i32 0, i64 0, i64 0, i64 0, i32 0, null, metadata !569, i32 0, i32 0} ; [ DW_TAG_subroutine_type ]
!569 = metadata !{metadata !445, metadata !392}
!570 = metadata !{i32 786478, i32 0, metadata !308, metadata !"begin", metadata !"begin", metadata !"_ZNKSs5beginEv", metadata !312, i32 610, metadata !571, i1 false, i1 false, i32 0, i32 0, null, i32 256, i1 false, null, null, i32 0, metadata !88, i32 610} ; [ DW_TAG_subprogram ]
!571 = metadata !{i32 786453, i32 0, metadata !"", i32 0, i32 0, i64 0, i64 0, i64 0, i32 0, null, metadata !572, i32 0, i32 0} ; [ DW_TAG_subroutine_type ]
!572 = metadata !{metadata !477, metadata !387}
!573 = metadata !{i32 786478, i32 0, metadata !308, metadata !"end", metadata !"end", metadata !"_ZNSs3endEv", metadata !312, i32 618, metadata !568, i1 false, i1 false, i32 0, i32 0, null, i32 256, i1 false, null, null, i32 0, metadata !88, i32 618} ; [ DW_TAG_subprogram ]
!574 = metadata !{i32 786478, i32 0, metadata !308, metadata !"end", metadata !"end", metadata !"_ZNKSs3endEv", metadata !312, i32 629, metadata !571, i1 false, i1 false, i32 0, i32 0, null, i32 256, i1 false, null, null, i32 0, metadata !88, i32 629} ; [ DW_TAG_subprogram ]
!575 = metadata !{i32 786478, i32 0, metadata !308, metadata !"rbegin", metadata !"rbegin", metadata !"_ZNSs6rbeginEv", metadata !312, i32 638, metadata !576, i1 false, i1 false, i32 0, i32 0, null, i32 256, i1 false, null, null, i32 0, metadata !88, i32 638} ; [ DW_TAG_subprogram ]
!576 = metadata !{i32 786453, i32 0, metadata !"", i32 0, i32 0, i64 0, i64 0, i64 0, i32 0, null, metadata !577, i32 0, i32 0} ; [ DW_TAG_subroutine_type ]
!577 = metadata !{metadata !578, metadata !392}
!578 = metadata !{i32 786454, metadata !308, metadata !"reverse_iterator", metadata !309, i32 125, i64 0, i64 0, i64 0, i32 0, metadata !579} ; [ DW_TAG_typedef ]
!579 = metadata !{i32 786434, null, metadata !"reverse_iterator<__gnu_cxx::__normal_iterator<char *, std::basic_string<char> > >", metadata !447, i32 97, i32 0, i32 0, i32 0, i32 4, null, null, i32 0} ; [ DW_TAG_class_type ]
!580 = metadata !{i32 786478, i32 0, metadata !308, metadata !"rbegin", metadata !"rbegin", metadata !"_ZNKSs6rbeginEv", metadata !312, i32 647, metadata !581, i1 false, i1 false, i32 0, i32 0, null, i32 256, i1 false, null, null, i32 0, metadata !88, i32 647} ; [ DW_TAG_subprogram ]
!581 = metadata !{i32 786453, i32 0, metadata !"", i32 0, i32 0, i64 0, i64 0, i64 0, i32 0, null, metadata !582, i32 0, i32 0} ; [ DW_TAG_subroutine_type ]
!582 = metadata !{metadata !583, metadata !387}
!583 = metadata !{i32 786454, metadata !308, metadata !"const_reverse_iterator", metadata !309, i32 124, i64 0, i64 0, i64 0, i32 0, metadata !584} ; [ DW_TAG_typedef ]
!584 = metadata !{i32 786434, null, metadata !"reverse_iterator<__gnu_cxx::__normal_iterator<const char *, std::basic_string<char> > >", metadata !447, i32 97, i32 0, i32 0, i32 0, i32 4, null, null, i32 0} ; [ DW_TAG_class_type ]
!585 = metadata !{i32 786478, i32 0, metadata !308, metadata !"rend", metadata !"rend", metadata !"_ZNSs4rendEv", metadata !312, i32 656, metadata !576, i1 false, i1 false, i32 0, i32 0, null, i32 256, i1 false, null, null, i32 0, metadata !88, i32 656} ; [ DW_TAG_subprogram ]
!586 = metadata !{i32 786478, i32 0, metadata !308, metadata !"rend", metadata !"rend", metadata !"_ZNKSs4rendEv", metadata !312, i32 665, metadata !581, i1 false, i1 false, i32 0, i32 0, null, i32 256, i1 false, null, null, i32 0, metadata !88, i32 665} ; [ DW_TAG_subprogram ]
!587 = metadata !{i32 786478, i32 0, metadata !308, metadata !"cbegin", metadata !"cbegin", metadata !"_ZNKSs6cbeginEv", metadata !312, i32 674, metadata !571, i1 false, i1 false, i32 0, i32 0, null, i32 256, i1 false, null, null, i32 0, metadata !88, i32 674} ; [ DW_TAG_subprogram ]
!588 = metadata !{i32 786478, i32 0, metadata !308, metadata !"cend", metadata !"cend", metadata !"_ZNKSs4cendEv", metadata !312, i32 682, metadata !571, i1 false, i1 false, i32 0, i32 0, null, i32 256, i1 false, null, null, i32 0, metadata !88, i32 682} ; [ DW_TAG_subprogram ]
!589 = metadata !{i32 786478, i32 0, metadata !308, metadata !"crbegin", metadata !"crbegin", metadata !"_ZNKSs7crbeginEv", metadata !312, i32 691, metadata !581, i1 false, i1 false, i32 0, i32 0, null, i32 256, i1 false, null, null, i32 0, metadata !88, i32 691} ; [ DW_TAG_subprogram ]
!590 = metadata !{i32 786478, i32 0, metadata !308, metadata !"crend", metadata !"crend", metadata !"_ZNKSs5crendEv", metadata !312, i32 700, metadata !581, i1 false, i1 false, i32 0, i32 0, null, i32 256, i1 false, null, null, i32 0, metadata !88, i32 700} ; [ DW_TAG_subprogram ]
!591 = metadata !{i32 786478, i32 0, metadata !308, metadata !"size", metadata !"size", metadata !"_ZNKSs4sizeEv", metadata !312, i32 709, metadata !592, i1 false, i1 false, i32 0, i32 0, null, i32 256, i1 false, null, null, i32 0, metadata !88, i32 709} ; [ DW_TAG_subprogram ]
!592 = metadata !{i32 786453, i32 0, metadata !"", i32 0, i32 0, i64 0, i64 0, i64 0, i32 0, null, metadata !593, i32 0, i32 0} ; [ DW_TAG_subroutine_type ]
!593 = metadata !{metadata !403, metadata !387}
!594 = metadata !{i32 786478, i32 0, metadata !308, metadata !"length", metadata !"length", metadata !"_ZNKSs6lengthEv", metadata !312, i32 715, metadata !592, i1 false, i1 false, i32 0, i32 0, null, i32 256, i1 false, null, null, i32 0, metadata !88, i32 715} ; [ DW_TAG_subprogram ]
!595 = metadata !{i32 786478, i32 0, metadata !308, metadata !"max_size", metadata !"max_size", metadata !"_ZNKSs8max_sizeEv", metadata !312, i32 720, metadata !592, i1 false, i1 false, i32 0, i32 0, null, i32 256, i1 false, null, null, i32 0, metadata !88, i32 720} ; [ DW_TAG_subprogram ]
!596 = metadata !{i32 786478, i32 0, metadata !308, metadata !"resize", metadata !"resize", metadata !"_ZNSs6resizeEjc", metadata !312, i32 734, metadata !597, i1 false, i1 false, i32 0, i32 0, null, i32 256, i1 false, null, null, i32 0, metadata !88, i32 734} ; [ DW_TAG_subprogram ]
!597 = metadata !{i32 786453, i32 0, metadata !"", i32 0, i32 0, i64 0, i64 0, i64 0, i32 0, null, metadata !598, i32 0, i32 0} ; [ DW_TAG_subroutine_type ]
!598 = metadata !{null, metadata !392, metadata !403, metadata !174}
!599 = metadata !{i32 786478, i32 0, metadata !308, metadata !"resize", metadata !"resize", metadata !"_ZNSs6resizeEj", metadata !312, i32 747, metadata !600, i1 false, i1 false, i32 0, i32 0, null, i32 256, i1 false, null, null, i32 0, metadata !88, i32 747} ; [ DW_TAG_subprogram ]
!600 = metadata !{i32 786453, i32 0, metadata !"", i32 0, i32 0, i64 0, i64 0, i64 0, i32 0, null, metadata !601, i32 0, i32 0} ; [ DW_TAG_subroutine_type ]
!601 = metadata !{null, metadata !392, metadata !403}
!602 = metadata !{i32 786478, i32 0, metadata !308, metadata !"shrink_to_fit", metadata !"shrink_to_fit", metadata !"_ZNSs13shrink_to_fitEv", metadata !312, i32 753, metadata !450, i1 false, i1 false, i32 0, i32 0, null, i32 256, i1 false, null, null, i32 0, metadata !88, i32 753} ; [ DW_TAG_subprogram ]
!603 = metadata !{i32 786478, i32 0, metadata !308, metadata !"capacity", metadata !"capacity", metadata !"_ZNKSs8capacityEv", metadata !312, i32 767, metadata !592, i1 false, i1 false, i32 0, i32 0, null, i32 256, i1 false, null, null, i32 0, metadata !88, i32 767} ; [ DW_TAG_subprogram ]
!604 = metadata !{i32 786478, i32 0, metadata !308, metadata !"reserve", metadata !"reserve", metadata !"_ZNSs7reserveEj", metadata !312, i32 788, metadata !600, i1 false, i1 false, i32 0, i32 0, null, i32 256, i1 false, null, null, i32 0, metadata !88, i32 788} ; [ DW_TAG_subprogram ]
!605 = metadata !{i32 786478, i32 0, metadata !308, metadata !"clear", metadata !"clear", metadata !"_ZNSs5clearEv", metadata !312, i32 794, metadata !450, i1 false, i1 false, i32 0, i32 0, null, i32 256, i1 false, null, null, i32 0, metadata !88, i32 794} ; [ DW_TAG_subprogram ]
!606 = metadata !{i32 786478, i32 0, metadata !308, metadata !"empty", metadata !"empty", metadata !"_ZNKSs5emptyEv", metadata !312, i32 802, metadata !607, i1 false, i1 false, i32 0, i32 0, null, i32 256, i1 false, null, null, i32 0, metadata !88, i32 802} ; [ DW_TAG_subprogram ]
!607 = metadata !{i32 786453, i32 0, metadata !"", i32 0, i32 0, i64 0, i64 0, i64 0, i32 0, null, metadata !608, i32 0, i32 0} ; [ DW_TAG_subroutine_type ]
!608 = metadata !{metadata !238, metadata !387}
!609 = metadata !{i32 786478, i32 0, metadata !308, metadata !"operator[]", metadata !"operator[]", metadata !"_ZNKSsixEj", metadata !312, i32 817, metadata !610, i1 false, i1 false, i32 0, i32 0, null, i32 256, i1 false, null, null, i32 0, metadata !88, i32 817} ; [ DW_TAG_subprogram ]
!610 = metadata !{i32 786453, i32 0, metadata !"", i32 0, i32 0, i64 0, i64 0, i64 0, i32 0, null, metadata !611, i32 0, i32 0} ; [ DW_TAG_subroutine_type ]
!611 = metadata !{metadata !612, metadata !387, metadata !403}
!612 = metadata !{i32 786454, metadata !308, metadata !"const_reference", metadata !309, i32 118, i64 0, i64 0, i64 0, i32 0, metadata !613} ; [ DW_TAG_typedef ]
!613 = metadata !{i32 786454, metadata !316, metadata !"const_reference", metadata !309, i32 100, i64 0, i64 0, i64 0, i32 0, metadata !346} ; [ DW_TAG_typedef ]
!614 = metadata !{i32 786478, i32 0, metadata !308, metadata !"operator[]", metadata !"operator[]", metadata !"_ZNSsixEj", metadata !312, i32 834, metadata !615, i1 false, i1 false, i32 0, i32 0, null, i32 256, i1 false, null, null, i32 0, metadata !88, i32 834} ; [ DW_TAG_subprogram ]
!615 = metadata !{i32 786453, i32 0, metadata !"", i32 0, i32 0, i64 0, i64 0, i64 0, i32 0, null, metadata !616, i32 0, i32 0} ; [ DW_TAG_subroutine_type ]
!616 = metadata !{metadata !617, metadata !392, metadata !403}
!617 = metadata !{i32 786454, metadata !308, metadata !"reference", metadata !309, i32 117, i64 0, i64 0, i64 0, i32 0, metadata !618} ; [ DW_TAG_typedef ]
!618 = metadata !{i32 786454, metadata !316, metadata !"reference", metadata !309, i32 99, i64 0, i64 0, i64 0, i32 0, metadata !340} ; [ DW_TAG_typedef ]
!619 = metadata !{i32 786478, i32 0, metadata !308, metadata !"at", metadata !"at", metadata !"_ZNKSs2atEj", metadata !312, i32 855, metadata !610, i1 false, i1 false, i32 0, i32 0, null, i32 256, i1 false, null, null, i32 0, metadata !88, i32 855} ; [ DW_TAG_subprogram ]
!620 = metadata !{i32 786478, i32 0, metadata !308, metadata !"front", metadata !"front", metadata !"_ZNSs5frontEv", metadata !312, i32 868, metadata !621, i1 false, i1 false, i32 0, i32 0, null, i32 256, i1 false, null, null, i32 0, metadata !88, i32 868} ; [ DW_TAG_subprogram ]
!621 = metadata !{i32 786453, i32 0, metadata !"", i32 0, i32 0, i64 0, i64 0, i64 0, i32 0, null, metadata !622, i32 0, i32 0} ; [ DW_TAG_subroutine_type ]
!622 = metadata !{metadata !617, metadata !392}
!623 = metadata !{i32 786478, i32 0, metadata !308, metadata !"front", metadata !"front", metadata !"_ZNKSs5frontEv", metadata !312, i32 876, metadata !624, i1 false, i1 false, i32 0, i32 0, null, i32 256, i1 false, null, null, i32 0, metadata !88, i32 876} ; [ DW_TAG_subprogram ]
!624 = metadata !{i32 786453, i32 0, metadata !"", i32 0, i32 0, i64 0, i64 0, i64 0, i32 0, null, metadata !625, i32 0, i32 0} ; [ DW_TAG_subroutine_type ]
!625 = metadata !{metadata !612, metadata !387}
!626 = metadata !{i32 786478, i32 0, metadata !308, metadata !"back", metadata !"back", metadata !"_ZNSs4backEv", metadata !312, i32 884, metadata !621, i1 false, i1 false, i32 0, i32 0, null, i32 256, i1 false, null, null, i32 0, metadata !88, i32 884} ; [ DW_TAG_subprogram ]
!627 = metadata !{i32 786478, i32 0, metadata !308, metadata !"back", metadata !"back", metadata !"_ZNKSs4backEv", metadata !312, i32 892, metadata !624, i1 false, i1 false, i32 0, i32 0, null, i32 256, i1 false, null, null, i32 0, metadata !88, i32 892} ; [ DW_TAG_subprogram ]
!628 = metadata !{i32 786478, i32 0, metadata !308, metadata !"at", metadata !"at", metadata !"_ZNSs2atEj", metadata !312, i32 908, metadata !615, i1 false, i1 false, i32 0, i32 0, null, i32 256, i1 false, null, null, i32 0, metadata !88, i32 908} ; [ DW_TAG_subprogram ]
!629 = metadata !{i32 786478, i32 0, metadata !308, metadata !"operator+=", metadata !"operator+=", metadata !"_ZNSspLERKSs", metadata !312, i32 923, metadata !552, i1 false, i1 false, i32 0, i32 0, null, i32 256, i1 false, null, null, i32 0, metadata !88, i32 923} ; [ DW_TAG_subprogram ]
!630 = metadata !{i32 786478, i32 0, metadata !308, metadata !"operator+=", metadata !"operator+=", metadata !"_ZNSspLEPKc", metadata !312, i32 932, metadata !556, i1 false, i1 false, i32 0, i32 0, null, i32 256, i1 false, null, null, i32 0, metadata !88, i32 932} ; [ DW_TAG_subprogram ]
!631 = metadata !{i32 786478, i32 0, metadata !308, metadata !"operator+=", metadata !"operator+=", metadata !"_ZNSspLEc", metadata !312, i32 941, metadata !559, i1 false, i1 false, i32 0, i32 0, null, i32 256, i1 false, null, null, i32 0, metadata !88, i32 941} ; [ DW_TAG_subprogram ]
!632 = metadata !{i32 786478, i32 0, metadata !308, metadata !"operator+=", metadata !"operator+=", metadata !"_ZNSspLESt16initializer_listIcE", metadata !312, i32 954, metadata !565, i1 false, i1 false, i32 0, i32 0, null, i32 256, i1 false, null, null, i32 0, metadata !88, i32 954} ; [ DW_TAG_subprogram ]
!633 = metadata !{i32 786478, i32 0, metadata !308, metadata !"append", metadata !"append", metadata !"_ZNSs6appendERKSs", metadata !312, i32 964, metadata !552, i1 false, i1 false, i32 0, i32 0, null, i32 256, i1 false, null, null, i32 0, metadata !88, i32 964} ; [ DW_TAG_subprogram ]
!634 = metadata !{i32 786478, i32 0, metadata !308, metadata !"append", metadata !"append", metadata !"_ZNSs6appendERKSsjj", metadata !312, i32 979, metadata !635, i1 false, i1 false, i32 0, i32 0, null, i32 256, i1 false, null, null, i32 0, metadata !88, i32 979} ; [ DW_TAG_subprogram ]
!635 = metadata !{i32 786453, i32 0, metadata !"", i32 0, i32 0, i64 0, i64 0, i64 0, i32 0, null, metadata !636, i32 0, i32 0} ; [ DW_TAG_subroutine_type ]
!636 = metadata !{metadata !554, metadata !392, metadata !500, metadata !403, metadata !403}
!637 = metadata !{i32 786478, i32 0, metadata !308, metadata !"append", metadata !"append", metadata !"_ZNSs6appendEPKcj", metadata !312, i32 988, metadata !638, i1 false, i1 false, i32 0, i32 0, null, i32 256, i1 false, null, null, i32 0, metadata !88, i32 988} ; [ DW_TAG_subprogram ]
!638 = metadata !{i32 786453, i32 0, metadata !"", i32 0, i32 0, i64 0, i64 0, i64 0, i32 0, null, metadata !639, i32 0, i32 0} ; [ DW_TAG_subroutine_type ]
!639 = metadata !{metadata !554, metadata !392, metadata !172, metadata !403}
!640 = metadata !{i32 786478, i32 0, metadata !308, metadata !"append", metadata !"append", metadata !"_ZNSs6appendEPKc", metadata !312, i32 996, metadata !556, i1 false, i1 false, i32 0, i32 0, null, i32 256, i1 false, null, null, i32 0, metadata !88, i32 996} ; [ DW_TAG_subprogram ]
!641 = metadata !{i32 786478, i32 0, metadata !308, metadata !"append", metadata !"append", metadata !"_ZNSs6appendEjc", metadata !312, i32 1011, metadata !642, i1 false, i1 false, i32 0, i32 0, null, i32 256, i1 false, null, null, i32 0, metadata !88, i32 1011} ; [ DW_TAG_subprogram ]
!642 = metadata !{i32 786453, i32 0, metadata !"", i32 0, i32 0, i64 0, i64 0, i64 0, i32 0, null, metadata !643, i32 0, i32 0} ; [ DW_TAG_subroutine_type ]
!643 = metadata !{metadata !554, metadata !392, metadata !403, metadata !174}
!644 = metadata !{i32 786478, i32 0, metadata !308, metadata !"append", metadata !"append", metadata !"_ZNSs6appendESt16initializer_listIcE", metadata !312, i32 1020, metadata !565, i1 false, i1 false, i32 0, i32 0, null, i32 256, i1 false, null, null, i32 0, metadata !88, i32 1020} ; [ DW_TAG_subprogram ]
!645 = metadata !{i32 786478, i32 0, metadata !308, metadata !"push_back", metadata !"push_back", metadata !"_ZNSs9push_backEc", metadata !312, i32 1042, metadata !646, i1 false, i1 false, i32 0, i32 0, null, i32 256, i1 false, null, null, i32 0, metadata !88, i32 1042} ; [ DW_TAG_subprogram ]
!646 = metadata !{i32 786453, i32 0, metadata !"", i32 0, i32 0, i64 0, i64 0, i64 0, i32 0, null, metadata !647, i32 0, i32 0} ; [ DW_TAG_subroutine_type ]
!647 = metadata !{null, metadata !392, metadata !174}
!648 = metadata !{i32 786478, i32 0, metadata !308, metadata !"assign", metadata !"assign", metadata !"_ZNSs6assignERKSs", metadata !312, i32 1057, metadata !552, i1 false, i1 false, i32 0, i32 0, null, i32 256, i1 false, null, null, i32 0, metadata !88, i32 1057} ; [ DW_TAG_subprogram ]
!649 = metadata !{i32 786478, i32 0, metadata !308, metadata !"assign", metadata !"assign", metadata !"_ZNSs6assignEOSs", metadata !312, i32 1069, metadata !562, i1 false, i1 false, i32 0, i32 0, null, i32 256, i1 false, null, null, i32 0, metadata !88, i32 1069} ; [ DW_TAG_subprogram ]
!650 = metadata !{i32 786478, i32 0, metadata !308, metadata !"assign", metadata !"assign", metadata !"_ZNSs6assignERKSsjj", metadata !312, i32 1089, metadata !635, i1 false, i1 false, i32 0, i32 0, null, i32 256, i1 false, null, null, i32 0, metadata !88, i32 1089} ; [ DW_TAG_subprogram ]
!651 = metadata !{i32 786478, i32 0, metadata !308, metadata !"assign", metadata !"assign", metadata !"_ZNSs6assignEPKcj", metadata !312, i32 1105, metadata !638, i1 false, i1 false, i32 0, i32 0, null, i32 256, i1 false, null, null, i32 0, metadata !88, i32 1105} ; [ DW_TAG_subprogram ]
!652 = metadata !{i32 786478, i32 0, metadata !308, metadata !"assign", metadata !"assign", metadata !"_ZNSs6assignEPKc", metadata !312, i32 1117, metadata !556, i1 false, i1 false, i32 0, i32 0, null, i32 256, i1 false, null, null, i32 0, metadata !88, i32 1117} ; [ DW_TAG_subprogram ]
!653 = metadata !{i32 786478, i32 0, metadata !308, metadata !"assign", metadata !"assign", metadata !"_ZNSs6assignEjc", metadata !312, i32 1133, metadata !642, i1 false, i1 false, i32 0, i32 0, null, i32 256, i1 false, null, null, i32 0, metadata !88, i32 1133} ; [ DW_TAG_subprogram ]
!654 = metadata !{i32 786478, i32 0, metadata !308, metadata !"assign", metadata !"assign", metadata !"_ZNSs6assignESt16initializer_listIcE", metadata !312, i32 1156, metadata !565, i1 false, i1 false, i32 0, i32 0, null, i32 256, i1 false, null, null, i32 0, metadata !88, i32 1156} ; [ DW_TAG_subprogram ]
!655 = metadata !{i32 786478, i32 0, metadata !308, metadata !"insert", metadata !"insert", metadata !"_ZNSs6insertEN9__gnu_cxx17__normal_iteratorIPcSsEEjc", metadata !312, i32 1173, metadata !656, i1 false, i1 false, i32 0, i32 0, null, i32 256, i1 false, null, null, i32 0, metadata !88, i32 1173} ; [ DW_TAG_subprogram ]
!656 = metadata !{i32 786453, i32 0, metadata !"", i32 0, i32 0, i64 0, i64 0, i64 0, i32 0, null, metadata !657, i32 0, i32 0} ; [ DW_TAG_subroutine_type ]
!657 = metadata !{null, metadata !392, metadata !445, metadata !403, metadata !174}
!658 = metadata !{i32 786478, i32 0, metadata !308, metadata !"insert", metadata !"insert", metadata !"_ZNSs6insertEN9__gnu_cxx17__normal_iteratorIPcSsEESt16initializer_listIcE", metadata !312, i32 1200, metadata !659, i1 false, i1 false, i32 0, i32 0, null, i32 256, i1 false, null, null, i32 0, metadata !88, i32 1200} ; [ DW_TAG_subprogram ]
!659 = metadata !{i32 786453, i32 0, metadata !"", i32 0, i32 0, i64 0, i64 0, i64 0, i32 0, null, metadata !660, i32 0, i32 0} ; [ DW_TAG_subroutine_type ]
!660 = metadata !{null, metadata !392, metadata !445, metadata !523}
!661 = metadata !{i32 786478, i32 0, metadata !308, metadata !"insert", metadata !"insert", metadata !"_ZNSs6insertEjRKSs", metadata !312, i32 1219, metadata !662, i1 false, i1 false, i32 0, i32 0, null, i32 256, i1 false, null, null, i32 0, metadata !88, i32 1219} ; [ DW_TAG_subprogram ]
!662 = metadata !{i32 786453, i32 0, metadata !"", i32 0, i32 0, i64 0, i64 0, i64 0, i32 0, null, metadata !663, i32 0, i32 0} ; [ DW_TAG_subroutine_type ]
!663 = metadata !{metadata !554, metadata !392, metadata !403, metadata !500}
!664 = metadata !{i32 786478, i32 0, metadata !308, metadata !"insert", metadata !"insert", metadata !"_ZNSs6insertEjRKSsjj", metadata !312, i32 1241, metadata !665, i1 false, i1 false, i32 0, i32 0, null, i32 256, i1 false, null, null, i32 0, metadata !88, i32 1241} ; [ DW_TAG_subprogram ]
!665 = metadata !{i32 786453, i32 0, metadata !"", i32 0, i32 0, i64 0, i64 0, i64 0, i32 0, null, metadata !666, i32 0, i32 0} ; [ DW_TAG_subroutine_type ]
!666 = metadata !{metadata !554, metadata !392, metadata !403, metadata !500, metadata !403, metadata !403}
!667 = metadata !{i32 786478, i32 0, metadata !308, metadata !"insert", metadata !"insert", metadata !"_ZNSs6insertEjPKcj", metadata !312, i32 1264, metadata !668, i1 false, i1 false, i32 0, i32 0, null, i32 256, i1 false, null, null, i32 0, metadata !88, i32 1264} ; [ DW_TAG_subprogram ]
!668 = metadata !{i32 786453, i32 0, metadata !"", i32 0, i32 0, i64 0, i64 0, i64 0, i32 0, null, metadata !669, i32 0, i32 0} ; [ DW_TAG_subroutine_type ]
!669 = metadata !{metadata !554, metadata !392, metadata !403, metadata !172, metadata !403}
!670 = metadata !{i32 786478, i32 0, metadata !308, metadata !"insert", metadata !"insert", metadata !"_ZNSs6insertEjPKc", metadata !312, i32 1282, metadata !671, i1 false, i1 false, i32 0, i32 0, null, i32 256, i1 false, null, null, i32 0, metadata !88, i32 1282} ; [ DW_TAG_subprogram ]
!671 = metadata !{i32 786453, i32 0, metadata !"", i32 0, i32 0, i64 0, i64 0, i64 0, i32 0, null, metadata !672, i32 0, i32 0} ; [ DW_TAG_subroutine_type ]
!672 = metadata !{metadata !554, metadata !392, metadata !403, metadata !172}
!673 = metadata !{i32 786478, i32 0, metadata !308, metadata !"insert", metadata !"insert", metadata !"_ZNSs6insertEjjc", metadata !312, i32 1305, metadata !674, i1 false, i1 false, i32 0, i32 0, null, i32 256, i1 false, null, null, i32 0, metadata !88, i32 1305} ; [ DW_TAG_subprogram ]
!674 = metadata !{i32 786453, i32 0, metadata !"", i32 0, i32 0, i64 0, i64 0, i64 0, i32 0, null, metadata !675, i32 0, i32 0} ; [ DW_TAG_subroutine_type ]
!675 = metadata !{metadata !554, metadata !392, metadata !403, metadata !403, metadata !174}
!676 = metadata !{i32 786478, i32 0, metadata !308, metadata !"insert", metadata !"insert", metadata !"_ZNSs6insertEN9__gnu_cxx17__normal_iteratorIPcSsEEc", metadata !312, i32 1322, metadata !677, i1 false, i1 false, i32 0, i32 0, null, i32 256, i1 false, null, null, i32 0, metadata !88, i32 1322} ; [ DW_TAG_subprogram ]
!677 = metadata !{i32 786453, i32 0, metadata !"", i32 0, i32 0, i64 0, i64 0, i64 0, i32 0, null, metadata !678, i32 0, i32 0} ; [ DW_TAG_subroutine_type ]
!678 = metadata !{metadata !445, metadata !392, metadata !445, metadata !174}
!679 = metadata !{i32 786478, i32 0, metadata !308, metadata !"erase", metadata !"erase", metadata !"_ZNSs5eraseEjj", metadata !312, i32 1346, metadata !680, i1 false, i1 false, i32 0, i32 0, null, i32 256, i1 false, null, null, i32 0, metadata !88, i32 1346} ; [ DW_TAG_subprogram ]
!680 = metadata !{i32 786453, i32 0, metadata !"", i32 0, i32 0, i64 0, i64 0, i64 0, i32 0, null, metadata !681, i32 0, i32 0} ; [ DW_TAG_subroutine_type ]
!681 = metadata !{metadata !554, metadata !392, metadata !403, metadata !403}
!682 = metadata !{i32 786478, i32 0, metadata !308, metadata !"erase", metadata !"erase", metadata !"_ZNSs5eraseEN9__gnu_cxx17__normal_iteratorIPcSsEE", metadata !312, i32 1362, metadata !683, i1 false, i1 false, i32 0, i32 0, null, i32 256, i1 false, null, null, i32 0, metadata !88, i32 1362} ; [ DW_TAG_subprogram ]
!683 = metadata !{i32 786453, i32 0, metadata !"", i32 0, i32 0, i64 0, i64 0, i64 0, i32 0, null, metadata !684, i32 0, i32 0} ; [ DW_TAG_subroutine_type ]
!684 = metadata !{metadata !445, metadata !392, metadata !445}
!685 = metadata !{i32 786478, i32 0, metadata !308, metadata !"erase", metadata !"erase", metadata !"_ZNSs5eraseEN9__gnu_cxx17__normal_iteratorIPcSsEES2_", metadata !312, i32 1382, metadata !686, i1 false, i1 false, i32 0, i32 0, null, i32 256, i1 false, null, null, i32 0, metadata !88, i32 1382} ; [ DW_TAG_subprogram ]
!686 = metadata !{i32 786453, i32 0, metadata !"", i32 0, i32 0, i64 0, i64 0, i64 0, i32 0, null, metadata !687, i32 0, i32 0} ; [ DW_TAG_subroutine_type ]
!687 = metadata !{metadata !445, metadata !392, metadata !445, metadata !445}
!688 = metadata !{i32 786478, i32 0, metadata !308, metadata !"replace", metadata !"replace", metadata !"_ZNSs7replaceEjjRKSs", metadata !312, i32 1401, metadata !689, i1 false, i1 false, i32 0, i32 0, null, i32 256, i1 false, null, null, i32 0, metadata !88, i32 1401} ; [ DW_TAG_subprogram ]
!689 = metadata !{i32 786453, i32 0, metadata !"", i32 0, i32 0, i64 0, i64 0, i64 0, i32 0, null, metadata !690, i32 0, i32 0} ; [ DW_TAG_subroutine_type ]
!690 = metadata !{metadata !554, metadata !392, metadata !403, metadata !403, metadata !500}
!691 = metadata !{i32 786478, i32 0, metadata !308, metadata !"replace", metadata !"replace", metadata !"_ZNSs7replaceEjjRKSsjj", metadata !312, i32 1423, metadata !692, i1 false, i1 false, i32 0, i32 0, null, i32 256, i1 false, null, null, i32 0, metadata !88, i32 1423} ; [ DW_TAG_subprogram ]
!692 = metadata !{i32 786453, i32 0, metadata !"", i32 0, i32 0, i64 0, i64 0, i64 0, i32 0, null, metadata !693, i32 0, i32 0} ; [ DW_TAG_subroutine_type ]
!693 = metadata !{metadata !554, metadata !392, metadata !403, metadata !403, metadata !500, metadata !403, metadata !403}
!694 = metadata !{i32 786478, i32 0, metadata !308, metadata !"replace", metadata !"replace", metadata !"_ZNSs7replaceEjjPKcj", metadata !312, i32 1447, metadata !695, i1 false, i1 false, i32 0, i32 0, null, i32 256, i1 false, null, null, i32 0, metadata !88, i32 1447} ; [ DW_TAG_subprogram ]
!695 = metadata !{i32 786453, i32 0, metadata !"", i32 0, i32 0, i64 0, i64 0, i64 0, i32 0, null, metadata !696, i32 0, i32 0} ; [ DW_TAG_subroutine_type ]
!696 = metadata !{metadata !554, metadata !392, metadata !403, metadata !403, metadata !172, metadata !403}
!697 = metadata !{i32 786478, i32 0, metadata !308, metadata !"replace", metadata !"replace", metadata !"_ZNSs7replaceEjjPKc", metadata !312, i32 1466, metadata !698, i1 false, i1 false, i32 0, i32 0, null, i32 256, i1 false, null, null, i32 0, metadata !88, i32 1466} ; [ DW_TAG_subprogram ]
!698 = metadata !{i32 786453, i32 0, metadata !"", i32 0, i32 0, i64 0, i64 0, i64 0, i32 0, null, metadata !699, i32 0, i32 0} ; [ DW_TAG_subroutine_type ]
!699 = metadata !{metadata !554, metadata !392, metadata !403, metadata !403, metadata !172}
!700 = metadata !{i32 786478, i32 0, metadata !308, metadata !"replace", metadata !"replace", metadata !"_ZNSs7replaceEjjjc", metadata !312, i32 1489, metadata !701, i1 false, i1 false, i32 0, i32 0, null, i32 256, i1 false, null, null, i32 0, metadata !88, i32 1489} ; [ DW_TAG_subprogram ]
!701 = metadata !{i32 786453, i32 0, metadata !"", i32 0, i32 0, i64 0, i64 0, i64 0, i32 0, null, metadata !702, i32 0, i32 0} ; [ DW_TAG_subroutine_type ]
!702 = metadata !{metadata !554, metadata !392, metadata !403, metadata !403, metadata !403, metadata !174}
!703 = metadata !{i32 786478, i32 0, metadata !308, metadata !"replace", metadata !"replace", metadata !"_ZNSs7replaceEN9__gnu_cxx17__normal_iteratorIPcSsEES2_RKSs", metadata !312, i32 1507, metadata !704, i1 false, i1 false, i32 0, i32 0, null, i32 256, i1 false, null, null, i32 0, metadata !88, i32 1507} ; [ DW_TAG_subprogram ]
!704 = metadata !{i32 786453, i32 0, metadata !"", i32 0, i32 0, i64 0, i64 0, i64 0, i32 0, null, metadata !705, i32 0, i32 0} ; [ DW_TAG_subroutine_type ]
!705 = metadata !{metadata !554, metadata !392, metadata !445, metadata !445, metadata !500}
!706 = metadata !{i32 786478, i32 0, metadata !308, metadata !"replace", metadata !"replace", metadata !"_ZNSs7replaceEN9__gnu_cxx17__normal_iteratorIPcSsEES2_PKcj", metadata !312, i32 1525, metadata !707, i1 false, i1 false, i32 0, i32 0, null, i32 256, i1 false, null, null, i32 0, metadata !88, i32 1525} ; [ DW_TAG_subprogram ]
!707 = metadata !{i32 786453, i32 0, metadata !"", i32 0, i32 0, i64 0, i64 0, i64 0, i32 0, null, metadata !708, i32 0, i32 0} ; [ DW_TAG_subroutine_type ]
!708 = metadata !{metadata !554, metadata !392, metadata !445, metadata !445, metadata !172, metadata !403}
!709 = metadata !{i32 786478, i32 0, metadata !308, metadata !"replace", metadata !"replace", metadata !"_ZNSs7replaceEN9__gnu_cxx17__normal_iteratorIPcSsEES2_PKc", metadata !312, i32 1546, metadata !710, i1 false, i1 false, i32 0, i32 0, null, i32 256, i1 false, null, null, i32 0, metadata !88, i32 1546} ; [ DW_TAG_subprogram ]
!710 = metadata !{i32 786453, i32 0, metadata !"", i32 0, i32 0, i64 0, i64 0, i64 0, i32 0, null, metadata !711, i32 0, i32 0} ; [ DW_TAG_subroutine_type ]
!711 = metadata !{metadata !554, metadata !392, metadata !445, metadata !445, metadata !172}
!712 = metadata !{i32 786478, i32 0, metadata !308, metadata !"replace", metadata !"replace", metadata !"_ZNSs7replaceEN9__gnu_cxx17__normal_iteratorIPcSsEES2_jc", metadata !312, i32 1567, metadata !713, i1 false, i1 false, i32 0, i32 0, null, i32 256, i1 false, null, null, i32 0, metadata !88, i32 1567} ; [ DW_TAG_subprogram ]
!713 = metadata !{i32 786453, i32 0, metadata !"", i32 0, i32 0, i64 0, i64 0, i64 0, i32 0, null, metadata !714, i32 0, i32 0} ; [ DW_TAG_subroutine_type ]
!714 = metadata !{metadata !554, metadata !392, metadata !445, metadata !445, metadata !403, metadata !174}
!715 = metadata !{i32 786478, i32 0, metadata !308, metadata !"replace", metadata !"replace", metadata !"_ZNSs7replaceEN9__gnu_cxx17__normal_iteratorIPcSsEES2_S1_S1_", metadata !312, i32 1603, metadata !716, i1 false, i1 false, i32 0, i32 0, null, i32 256, i1 false, null, null, i32 0, metadata !88, i32 1603} ; [ DW_TAG_subprogram ]
!716 = metadata !{i32 786453, i32 0, metadata !"", i32 0, i32 0, i64 0, i64 0, i64 0, i32 0, null, metadata !717, i32 0, i32 0} ; [ DW_TAG_subroutine_type ]
!717 = metadata !{metadata !554, metadata !392, metadata !445, metadata !445, metadata !213, metadata !213}
!718 = metadata !{i32 786478, i32 0, metadata !308, metadata !"replace", metadata !"replace", metadata !"_ZNSs7replaceEN9__gnu_cxx17__normal_iteratorIPcSsEES2_PKcS4_", metadata !312, i32 1613, metadata !719, i1 false, i1 false, i32 0, i32 0, null, i32 256, i1 false, null, null, i32 0, metadata !88, i32 1613} ; [ DW_TAG_subprogram ]
!719 = metadata !{i32 786453, i32 0, metadata !"", i32 0, i32 0, i64 0, i64 0, i64 0, i32 0, null, metadata !720, i32 0, i32 0} ; [ DW_TAG_subroutine_type ]
!720 = metadata !{metadata !554, metadata !392, metadata !445, metadata !445, metadata !172, metadata !172}
!721 = metadata !{i32 786478, i32 0, metadata !308, metadata !"replace", metadata !"replace", metadata !"_ZNSs7replaceEN9__gnu_cxx17__normal_iteratorIPcSsEES2_S2_S2_", metadata !312, i32 1624, metadata !722, i1 false, i1 false, i32 0, i32 0, null, i32 256, i1 false, null, null, i32 0, metadata !88, i32 1624} ; [ DW_TAG_subprogram ]
!722 = metadata !{i32 786453, i32 0, metadata !"", i32 0, i32 0, i64 0, i64 0, i64 0, i32 0, null, metadata !723, i32 0, i32 0} ; [ DW_TAG_subroutine_type ]
!723 = metadata !{metadata !554, metadata !392, metadata !445, metadata !445, metadata !445, metadata !445}
!724 = metadata !{i32 786478, i32 0, metadata !308, metadata !"replace", metadata !"replace", metadata !"_ZNSs7replaceEN9__gnu_cxx17__normal_iteratorIPcSsEES2_NS0_IPKcSsEES5_", metadata !312, i32 1634, metadata !725, i1 false, i1 false, i32 0, i32 0, null, i32 256, i1 false, null, null, i32 0, metadata !88, i32 1634} ; [ DW_TAG_subprogram ]
!725 = metadata !{i32 786453, i32 0, metadata !"", i32 0, i32 0, i64 0, i64 0, i64 0, i32 0, null, metadata !726, i32 0, i32 0} ; [ DW_TAG_subroutine_type ]
!726 = metadata !{metadata !554, metadata !392, metadata !445, metadata !445, metadata !477, metadata !477}
!727 = metadata !{i32 786478, i32 0, metadata !308, metadata !"replace", metadata !"replace", metadata !"_ZNSs7replaceEN9__gnu_cxx17__normal_iteratorIPcSsEES2_St16initializer_listIcE", metadata !312, i32 1658, metadata !728, i1 false, i1 false, i32 0, i32 0, null, i32 256, i1 false, null, null, i32 0, metadata !88, i32 1658} ; [ DW_TAG_subprogram ]
!728 = metadata !{i32 786453, i32 0, metadata !"", i32 0, i32 0, i64 0, i64 0, i64 0, i32 0, null, metadata !729, i32 0, i32 0} ; [ DW_TAG_subroutine_type ]
!729 = metadata !{metadata !554, metadata !392, metadata !445, metadata !445, metadata !523}
!730 = metadata !{i32 786478, i32 0, metadata !308, metadata !"_M_replace_aux", metadata !"_M_replace_aux", metadata !"_ZNSs14_M_replace_auxEjjjc", metadata !312, i32 1676, metadata !701, i1 false, i1 false, i32 0, i32 0, null, i32 257, i1 false, null, null, i32 0, metadata !88, i32 1676} ; [ DW_TAG_subprogram ]
!731 = metadata !{i32 786478, i32 0, metadata !308, metadata !"_M_replace_safe", metadata !"_M_replace_safe", metadata !"_ZNSs15_M_replace_safeEjjPKcj", metadata !312, i32 1680, metadata !695, i1 false, i1 false, i32 0, i32 0, null, i32 257, i1 false, null, null, i32 0, metadata !88, i32 1680} ; [ DW_TAG_subprogram ]
!732 = metadata !{i32 786478, i32 0, metadata !308, metadata !"_S_construct_aux_2", metadata !"_S_construct_aux_2", metadata !"_ZNSs18_S_construct_aux_2EjcRKSaIcE", metadata !312, i32 1704, metadata !733, i1 false, i1 false, i32 0, i32 0, null, i32 257, i1 false, null, null, i32 0, metadata !88, i32 1704} ; [ DW_TAG_subprogram ]
!733 = metadata !{i32 786453, i32 0, metadata !"", i32 0, i32 0, i64 0, i64 0, i64 0, i32 0, null, metadata !734, i32 0, i32 0} ; [ DW_TAG_subroutine_type ]
!734 = metadata !{metadata !213, metadata !403, metadata !174, metadata !374}
!735 = metadata !{i32 786478, i32 0, metadata !308, metadata !"_S_construct", metadata !"_S_construct", metadata !"_ZNSs12_S_constructEjcRKSaIcE", metadata !312, i32 1729, metadata !733, i1 false, i1 false, i32 0, i32 0, null, i32 257, i1 false, null, null, i32 0, metadata !88, i32 1729} ; [ DW_TAG_subprogram ]
!736 = metadata !{i32 786478, i32 0, metadata !308, metadata !"copy", metadata !"copy", metadata !"_ZNKSs4copyEPcjj", metadata !312, i32 1745, metadata !737, i1 false, i1 false, i32 0, i32 0, null, i32 256, i1 false, null, null, i32 0, metadata !88, i32 1745} ; [ DW_TAG_subprogram ]
!737 = metadata !{i32 786453, i32 0, metadata !"", i32 0, i32 0, i64 0, i64 0, i64 0, i32 0, null, metadata !738, i32 0, i32 0} ; [ DW_TAG_subroutine_type ]
!738 = metadata !{metadata !403, metadata !387, metadata !213, metadata !403, metadata !403}
!739 = metadata !{i32 786478, i32 0, metadata !308, metadata !"swap", metadata !"swap", metadata !"_ZNSs4swapERSs", metadata !312, i32 1755, metadata !740, i1 false, i1 false, i32 0, i32 0, null, i32 256, i1 false, null, null, i32 0, metadata !88, i32 1755} ; [ DW_TAG_subprogram ]
!740 = metadata !{i32 786453, i32 0, metadata !"", i32 0, i32 0, i64 0, i64 0, i64 0, i32 0, null, metadata !741, i32 0, i32 0} ; [ DW_TAG_subroutine_type ]
!741 = metadata !{null, metadata !392, metadata !554}
!742 = metadata !{i32 786478, i32 0, metadata !308, metadata !"c_str", metadata !"c_str", metadata !"_ZNKSs5c_strEv", metadata !312, i32 1765, metadata !743, i1 false, i1 false, i32 0, i32 0, null, i32 256, i1 false, null, null, i32 0, metadata !88, i32 1765} ; [ DW_TAG_subprogram ]
!743 = metadata !{i32 786453, i32 0, metadata !"", i32 0, i32 0, i64 0, i64 0, i64 0, i32 0, null, metadata !744, i32 0, i32 0} ; [ DW_TAG_subroutine_type ]
!744 = metadata !{metadata !172, metadata !387}
!745 = metadata !{i32 786478, i32 0, metadata !308, metadata !"data", metadata !"data", metadata !"_ZNKSs4dataEv", metadata !312, i32 1775, metadata !743, i1 false, i1 false, i32 0, i32 0, null, i32 256, i1 false, null, null, i32 0, metadata !88, i32 1775} ; [ DW_TAG_subprogram ]
!746 = metadata !{i32 786478, i32 0, metadata !308, metadata !"get_allocator", metadata !"get_allocator", metadata !"_ZNKSs13get_allocatorEv", metadata !312, i32 1782, metadata !747, i1 false, i1 false, i32 0, i32 0, null, i32 256, i1 false, null, null, i32 0, metadata !88, i32 1782} ; [ DW_TAG_subprogram ]
!747 = metadata !{i32 786453, i32 0, metadata !"", i32 0, i32 0, i64 0, i64 0, i64 0, i32 0, null, metadata !748, i32 0, i32 0} ; [ DW_TAG_subroutine_type ]
!748 = metadata !{metadata !749, metadata !387}
!749 = metadata !{i32 786454, metadata !308, metadata !"allocator_type", metadata !309, i32 114, i64 0, i64 0, i64 0, i32 0, metadata !316} ; [ DW_TAG_typedef ]
!750 = metadata !{i32 786478, i32 0, metadata !308, metadata !"find", metadata !"find", metadata !"_ZNKSs4findEPKcjj", metadata !312, i32 1797, metadata !751, i1 false, i1 false, i32 0, i32 0, null, i32 256, i1 false, null, null, i32 0, metadata !88, i32 1797} ; [ DW_TAG_subprogram ]
!751 = metadata !{i32 786453, i32 0, metadata !"", i32 0, i32 0, i64 0, i64 0, i64 0, i32 0, null, metadata !752, i32 0, i32 0} ; [ DW_TAG_subroutine_type ]
!752 = metadata !{metadata !403, metadata !387, metadata !172, metadata !403, metadata !403}
!753 = metadata !{i32 786478, i32 0, metadata !308, metadata !"find", metadata !"find", metadata !"_ZNKSs4findERKSsj", metadata !312, i32 1810, metadata !754, i1 false, i1 false, i32 0, i32 0, null, i32 256, i1 false, null, null, i32 0, metadata !88, i32 1810} ; [ DW_TAG_subprogram ]
!754 = metadata !{i32 786453, i32 0, metadata !"", i32 0, i32 0, i64 0, i64 0, i64 0, i32 0, null, metadata !755, i32 0, i32 0} ; [ DW_TAG_subroutine_type ]
!755 = metadata !{metadata !403, metadata !387, metadata !500, metadata !403}
!756 = metadata !{i32 786478, i32 0, metadata !308, metadata !"find", metadata !"find", metadata !"_ZNKSs4findEPKcj", metadata !312, i32 1824, metadata !757, i1 false, i1 false, i32 0, i32 0, null, i32 256, i1 false, null, null, i32 0, metadata !88, i32 1824} ; [ DW_TAG_subprogram ]
!757 = metadata !{i32 786453, i32 0, metadata !"", i32 0, i32 0, i64 0, i64 0, i64 0, i32 0, null, metadata !758, i32 0, i32 0} ; [ DW_TAG_subroutine_type ]
!758 = metadata !{metadata !403, metadata !387, metadata !172, metadata !403}
!759 = metadata !{i32 786478, i32 0, metadata !308, metadata !"find", metadata !"find", metadata !"_ZNKSs4findEcj", metadata !312, i32 1841, metadata !760, i1 false, i1 false, i32 0, i32 0, null, i32 256, i1 false, null, null, i32 0, metadata !88, i32 1841} ; [ DW_TAG_subprogram ]
!760 = metadata !{i32 786453, i32 0, metadata !"", i32 0, i32 0, i64 0, i64 0, i64 0, i32 0, null, metadata !761, i32 0, i32 0} ; [ DW_TAG_subroutine_type ]
!761 = metadata !{metadata !403, metadata !387, metadata !174, metadata !403}
!762 = metadata !{i32 786478, i32 0, metadata !308, metadata !"rfind", metadata !"rfind", metadata !"_ZNKSs5rfindERKSsj", metadata !312, i32 1854, metadata !754, i1 false, i1 false, i32 0, i32 0, null, i32 256, i1 false, null, null, i32 0, metadata !88, i32 1854} ; [ DW_TAG_subprogram ]
!763 = metadata !{i32 786478, i32 0, metadata !308, metadata !"rfind", metadata !"rfind", metadata !"_ZNKSs5rfindEPKcjj", metadata !312, i32 1869, metadata !751, i1 false, i1 false, i32 0, i32 0, null, i32 256, i1 false, null, null, i32 0, metadata !88, i32 1869} ; [ DW_TAG_subprogram ]
!764 = metadata !{i32 786478, i32 0, metadata !308, metadata !"rfind", metadata !"rfind", metadata !"_ZNKSs5rfindEPKcj", metadata !312, i32 1882, metadata !757, i1 false, i1 false, i32 0, i32 0, null, i32 256, i1 false, null, null, i32 0, metadata !88, i32 1882} ; [ DW_TAG_subprogram ]
!765 = metadata !{i32 786478, i32 0, metadata !308, metadata !"rfind", metadata !"rfind", metadata !"_ZNKSs5rfindEcj", metadata !312, i32 1899, metadata !760, i1 false, i1 false, i32 0, i32 0, null, i32 256, i1 false, null, null, i32 0, metadata !88, i32 1899} ; [ DW_TAG_subprogram ]
!766 = metadata !{i32 786478, i32 0, metadata !308, metadata !"find_first_of", metadata !"find_first_of", metadata !"_ZNKSs13find_first_ofERKSsj", metadata !312, i32 1912, metadata !754, i1 false, i1 false, i32 0, i32 0, null, i32 256, i1 false, null, null, i32 0, metadata !88, i32 1912} ; [ DW_TAG_subprogram ]
!767 = metadata !{i32 786478, i32 0, metadata !308, metadata !"find_first_of", metadata !"find_first_of", metadata !"_ZNKSs13find_first_ofEPKcjj", metadata !312, i32 1927, metadata !751, i1 false, i1 false, i32 0, i32 0, null, i32 256, i1 false, null, null, i32 0, metadata !88, i32 1927} ; [ DW_TAG_subprogram ]
!768 = metadata !{i32 786478, i32 0, metadata !308, metadata !"find_first_of", metadata !"find_first_of", metadata !"_ZNKSs13find_first_ofEPKcj", metadata !312, i32 1940, metadata !757, i1 false, i1 false, i32 0, i32 0, null, i32 256, i1 false, null, null, i32 0, metadata !88, i32 1940} ; [ DW_TAG_subprogram ]
!769 = metadata !{i32 786478, i32 0, metadata !308, metadata !"find_first_of", metadata !"find_first_of", metadata !"_ZNKSs13find_first_ofEcj", metadata !312, i32 1959, metadata !760, i1 false, i1 false, i32 0, i32 0, null, i32 256, i1 false, null, null, i32 0, metadata !88, i32 1959} ; [ DW_TAG_subprogram ]
!770 = metadata !{i32 786478, i32 0, metadata !308, metadata !"find_last_of", metadata !"find_last_of", metadata !"_ZNKSs12find_last_ofERKSsj", metadata !312, i32 1973, metadata !754, i1 false, i1 false, i32 0, i32 0, null, i32 256, i1 false, null, null, i32 0, metadata !88, i32 1973} ; [ DW_TAG_subprogram ]
!771 = metadata !{i32 786478, i32 0, metadata !308, metadata !"find_last_of", metadata !"find_last_of", metadata !"_ZNKSs12find_last_ofEPKcjj", metadata !312, i32 1988, metadata !751, i1 false, i1 false, i32 0, i32 0, null, i32 256, i1 false, null, null, i32 0, metadata !88, i32 1988} ; [ DW_TAG_subprogram ]
!772 = metadata !{i32 786478, i32 0, metadata !308, metadata !"find_last_of", metadata !"find_last_of", metadata !"_ZNKSs12find_last_ofEPKcj", metadata !312, i32 2001, metadata !757, i1 false, i1 false, i32 0, i32 0, null, i32 256, i1 false, null, null, i32 0, metadata !88, i32 2001} ; [ DW_TAG_subprogram ]
!773 = metadata !{i32 786478, i32 0, metadata !308, metadata !"find_last_of", metadata !"find_last_of", metadata !"_ZNKSs12find_last_ofEcj", metadata !312, i32 2020, metadata !760, i1 false, i1 false, i32 0, i32 0, null, i32 256, i1 false, null, null, i32 0, metadata !88, i32 2020} ; [ DW_TAG_subprogram ]
!774 = metadata !{i32 786478, i32 0, metadata !308, metadata !"find_first_not_of", metadata !"find_first_not_of", metadata !"_ZNKSs17find_first_not_ofERKSsj", metadata !312, i32 2034, metadata !754, i1 false, i1 false, i32 0, i32 0, null, i32 256, i1 false, null, null, i32 0, metadata !88, i32 2034} ; [ DW_TAG_subprogram ]
!775 = metadata !{i32 786478, i32 0, metadata !308, metadata !"find_first_not_of", metadata !"find_first_not_of", metadata !"_ZNKSs17find_first_not_ofEPKcjj", metadata !312, i32 2049, metadata !751, i1 false, i1 false, i32 0, i32 0, null, i32 256, i1 false, null, null, i32 0, metadata !88, i32 2049} ; [ DW_TAG_subprogram ]
!776 = metadata !{i32 786478, i32 0, metadata !308, metadata !"find_first_not_of", metadata !"find_first_not_of", metadata !"_ZNKSs17find_first_not_ofEPKcj", metadata !312, i32 2063, metadata !757, i1 false, i1 false, i32 0, i32 0, null, i32 256, i1 false, null, null, i32 0, metadata !88, i32 2063} ; [ DW_TAG_subprogram ]
!777 = metadata !{i32 786478, i32 0, metadata !308, metadata !"find_first_not_of", metadata !"find_first_not_of", metadata !"_ZNKSs17find_first_not_ofEcj", metadata !312, i32 2080, metadata !760, i1 false, i1 false, i32 0, i32 0, null, i32 256, i1 false, null, null, i32 0, metadata !88, i32 2080} ; [ DW_TAG_subprogram ]
!778 = metadata !{i32 786478, i32 0, metadata !308, metadata !"find_last_not_of", metadata !"find_last_not_of", metadata !"_ZNKSs16find_last_not_ofERKSsj", metadata !312, i32 2093, metadata !754, i1 false, i1 false, i32 0, i32 0, null, i32 256, i1 false, null, null, i32 0, metadata !88, i32 2093} ; [ DW_TAG_subprogram ]
!779 = metadata !{i32 786478, i32 0, metadata !308, metadata !"find_last_not_of", metadata !"find_last_not_of", metadata !"_ZNKSs16find_last_not_ofEPKcjj", metadata !312, i32 2109, metadata !751, i1 false, i1 false, i32 0, i32 0, null, i32 256, i1 false, null, null, i32 0, metadata !88, i32 2109} ; [ DW_TAG_subprogram ]
!780 = metadata !{i32 786478, i32 0, metadata !308, metadata !"find_last_not_of", metadata !"find_last_not_of", metadata !"_ZNKSs16find_last_not_ofEPKcj", metadata !312, i32 2122, metadata !757, i1 false, i1 false, i32 0, i32 0, null, i32 256, i1 false, null, null, i32 0, metadata !88, i32 2122} ; [ DW_TAG_subprogram ]
!781 = metadata !{i32 786478, i32 0, metadata !308, metadata !"find_last_not_of", metadata !"find_last_not_of", metadata !"_ZNKSs16find_last_not_ofEcj", metadata !312, i32 2139, metadata !760, i1 false, i1 false, i32 0, i32 0, null, i32 256, i1 false, null, null, i32 0, metadata !88, i32 2139} ; [ DW_TAG_subprogram ]
!782 = metadata !{i32 786478, i32 0, metadata !308, metadata !"substr", metadata !"substr", metadata !"_ZNKSs6substrEjj", metadata !312, i32 2154, metadata !783, i1 false, i1 false, i32 0, i32 0, null, i32 256, i1 false, null, null, i32 0, metadata !88, i32 2154} ; [ DW_TAG_subprogram ]
!783 = metadata !{i32 786453, i32 0, metadata !"", i32 0, i32 0, i64 0, i64 0, i64 0, i32 0, null, metadata !784, i32 0, i32 0} ; [ DW_TAG_subroutine_type ]
!784 = metadata !{metadata !308, metadata !387, metadata !403, metadata !403}
!785 = metadata !{i32 786478, i32 0, metadata !308, metadata !"compare", metadata !"compare", metadata !"_ZNKSs7compareERKSs", metadata !312, i32 2172, metadata !786, i1 false, i1 false, i32 0, i32 0, null, i32 256, i1 false, null, null, i32 0, metadata !88, i32 2172} ; [ DW_TAG_subprogram ]
!786 = metadata !{i32 786453, i32 0, metadata !"", i32 0, i32 0, i64 0, i64 0, i64 0, i32 0, null, metadata !787, i32 0, i32 0} ; [ DW_TAG_subroutine_type ]
!787 = metadata !{metadata !56, metadata !387, metadata !500}
!788 = metadata !{i32 786478, i32 0, metadata !308, metadata !"compare", metadata !"compare", metadata !"_ZNKSs7compareEjjRKSs", metadata !312, i32 2202, metadata !789, i1 false, i1 false, i32 0, i32 0, null, i32 256, i1 false, null, null, i32 0, metadata !88, i32 2202} ; [ DW_TAG_subprogram ]
!789 = metadata !{i32 786453, i32 0, metadata !"", i32 0, i32 0, i64 0, i64 0, i64 0, i32 0, null, metadata !790, i32 0, i32 0} ; [ DW_TAG_subroutine_type ]
!790 = metadata !{metadata !56, metadata !387, metadata !403, metadata !403, metadata !500}
!791 = metadata !{i32 786478, i32 0, metadata !308, metadata !"compare", metadata !"compare", metadata !"_ZNKSs7compareEjjRKSsjj", metadata !312, i32 2226, metadata !792, i1 false, i1 false, i32 0, i32 0, null, i32 256, i1 false, null, null, i32 0, metadata !88, i32 2226} ; [ DW_TAG_subprogram ]
!792 = metadata !{i32 786453, i32 0, metadata !"", i32 0, i32 0, i64 0, i64 0, i64 0, i32 0, null, metadata !793, i32 0, i32 0} ; [ DW_TAG_subroutine_type ]
!793 = metadata !{metadata !56, metadata !387, metadata !403, metadata !403, metadata !500, metadata !403, metadata !403}
!794 = metadata !{i32 786478, i32 0, metadata !308, metadata !"compare", metadata !"compare", metadata !"_ZNKSs7compareEPKc", metadata !312, i32 2244, metadata !795, i1 false, i1 false, i32 0, i32 0, null, i32 256, i1 false, null, null, i32 0, metadata !88, i32 2244} ; [ DW_TAG_subprogram ]
!795 = metadata !{i32 786453, i32 0, metadata !"", i32 0, i32 0, i64 0, i64 0, i64 0, i32 0, null, metadata !796, i32 0, i32 0} ; [ DW_TAG_subroutine_type ]
!796 = metadata !{metadata !56, metadata !387, metadata !172}
!797 = metadata !{i32 786478, i32 0, metadata !308, metadata !"compare", metadata !"compare", metadata !"_ZNKSs7compareEjjPKc", metadata !312, i32 2267, metadata !798, i1 false, i1 false, i32 0, i32 0, null, i32 256, i1 false, null, null, i32 0, metadata !88, i32 2267} ; [ DW_TAG_subprogram ]
!798 = metadata !{i32 786453, i32 0, metadata !"", i32 0, i32 0, i64 0, i64 0, i64 0, i32 0, null, metadata !799, i32 0, i32 0} ; [ DW_TAG_subroutine_type ]
!799 = metadata !{metadata !56, metadata !387, metadata !403, metadata !403, metadata !172}
!800 = metadata !{i32 786478, i32 0, metadata !308, metadata !"compare", metadata !"compare", metadata !"_ZNKSs7compareEjjPKcj", metadata !312, i32 2292, metadata !801, i1 false, i1 false, i32 0, i32 0, null, i32 256, i1 false, null, null, i32 0, metadata !88, i32 2292} ; [ DW_TAG_subprogram ]
!801 = metadata !{i32 786453, i32 0, metadata !"", i32 0, i32 0, i64 0, i64 0, i64 0, i32 0, null, metadata !802, i32 0, i32 0} ; [ DW_TAG_subroutine_type ]
!802 = metadata !{metadata !56, metadata !387, metadata !403, metadata !403, metadata !172, metadata !403}
!803 = metadata !{metadata !804, metadata !805, metadata !858}
!804 = metadata !{i32 786479, null, metadata !"_CharT", metadata !174, null, i32 0, i32 0} ; [ DW_TAG_template_type_parameter ]
!805 = metadata !{i32 786479, null, metadata !"_Traits", metadata !806, null, i32 0, i32 0} ; [ DW_TAG_template_type_parameter ]
!806 = metadata !{i32 786434, metadata !807, metadata !"char_traits<char>", metadata !808, i32 234, i64 8, i64 8, i32 0, i32 0, null, metadata !809, i32 0, null, metadata !857} ; [ DW_TAG_class_type ]
!807 = metadata !{i32 786489, null, metadata !"std", metadata !808, i32 210} ; [ DW_TAG_namespace ]
!808 = metadata !{i32 786473, metadata !"/proj/xbuilds/2017.1_sdx_0419_1/installs/lin64/SDx/2017.1/Vivado_HLS/lnx64/tools/gcc/lib/gcc/x86_64-unknown-linux-gnu/4.6.3/../../../../include/c++/4.6.3/bits/char_traits.h", metadata !"/proj/xhdhdstaff2/kalib/sprite_makefile_dev/apps/cpp/getting_started/dependence_inter/emu/_sds/vhls", null} ; [ DW_TAG_file_type ]
!809 = metadata !{metadata !810, metadata !817, metadata !820, metadata !821, metadata !825, metadata !828, metadata !831, metadata !835, metadata !836, metadata !839, metadata !845, metadata !848, metadata !851, metadata !854}
!810 = metadata !{i32 786478, i32 0, metadata !806, metadata !"assign", metadata !"assign", metadata !"_ZNSt11char_traitsIcE6assignERcRKc", metadata !808, i32 243, metadata !811, i1 false, i1 false, i32 0, i32 0, null, i32 256, i1 false, null, null, i32 0, metadata !88, i32 243} ; [ DW_TAG_subprogram ]
!811 = metadata !{i32 786453, i32 0, metadata !"", i32 0, i32 0, i64 0, i64 0, i64 0, i32 0, null, metadata !812, i32 0, i32 0} ; [ DW_TAG_subroutine_type ]
!812 = metadata !{null, metadata !813, metadata !815}
!813 = metadata !{i32 786448, null, null, null, i32 0, i64 0, i64 0, i64 0, i32 0, metadata !814} ; [ DW_TAG_reference_type ]
!814 = metadata !{i32 786454, metadata !806, metadata !"char_type", metadata !808, i32 236, i64 0, i64 0, i64 0, i32 0, metadata !174} ; [ DW_TAG_typedef ]
!815 = metadata !{i32 786448, null, null, null, i32 0, i64 0, i64 0, i64 0, i32 0, metadata !816} ; [ DW_TAG_reference_type ]
!816 = metadata !{i32 786470, null, metadata !"", null, i32 0, i64 0, i64 0, i64 0, i32 0, metadata !814} ; [ DW_TAG_const_type ]
!817 = metadata !{i32 786478, i32 0, metadata !806, metadata !"eq", metadata !"eq", metadata !"_ZNSt11char_traitsIcE2eqERKcS2_", metadata !808, i32 247, metadata !818, i1 false, i1 false, i32 0, i32 0, null, i32 256, i1 false, null, null, i32 0, metadata !88, i32 247} ; [ DW_TAG_subprogram ]
!818 = metadata !{i32 786453, i32 0, metadata !"", i32 0, i32 0, i64 0, i64 0, i64 0, i32 0, null, metadata !819, i32 0, i32 0} ; [ DW_TAG_subroutine_type ]
!819 = metadata !{metadata !238, metadata !815, metadata !815}
!820 = metadata !{i32 786478, i32 0, metadata !806, metadata !"lt", metadata !"lt", metadata !"_ZNSt11char_traitsIcE2ltERKcS2_", metadata !808, i32 251, metadata !818, i1 false, i1 false, i32 0, i32 0, null, i32 256, i1 false, null, null, i32 0, metadata !88, i32 251} ; [ DW_TAG_subprogram ]
!821 = metadata !{i32 786478, i32 0, metadata !806, metadata !"compare", metadata !"compare", metadata !"_ZNSt11char_traitsIcE7compareEPKcS2_j", metadata !808, i32 255, metadata !822, i1 false, i1 false, i32 0, i32 0, null, i32 256, i1 false, null, null, i32 0, metadata !88, i32 255} ; [ DW_TAG_subprogram ]
!822 = metadata !{i32 786453, i32 0, metadata !"", i32 0, i32 0, i64 0, i64 0, i64 0, i32 0, null, metadata !823, i32 0, i32 0} ; [ DW_TAG_subroutine_type ]
!823 = metadata !{metadata !56, metadata !824, metadata !824, metadata !139}
!824 = metadata !{i32 786447, null, metadata !"", null, i32 0, i64 32, i64 32, i64 0, i32 0, metadata !816} ; [ DW_TAG_pointer_type ]
!825 = metadata !{i32 786478, i32 0, metadata !806, metadata !"length", metadata !"length", metadata !"_ZNSt11char_traitsIcE6lengthEPKc", metadata !808, i32 259, metadata !826, i1 false, i1 false, i32 0, i32 0, null, i32 256, i1 false, null, null, i32 0, metadata !88, i32 259} ; [ DW_TAG_subprogram ]
!826 = metadata !{i32 786453, i32 0, metadata !"", i32 0, i32 0, i64 0, i64 0, i64 0, i32 0, null, metadata !827, i32 0, i32 0} ; [ DW_TAG_subroutine_type ]
!827 = metadata !{metadata !139, metadata !824}
!828 = metadata !{i32 786478, i32 0, metadata !806, metadata !"find", metadata !"find", metadata !"_ZNSt11char_traitsIcE4findEPKcjRS1_", metadata !808, i32 263, metadata !829, i1 false, i1 false, i32 0, i32 0, null, i32 256, i1 false, null, null, i32 0, metadata !88, i32 263} ; [ DW_TAG_subprogram ]
!829 = metadata !{i32 786453, i32 0, metadata !"", i32 0, i32 0, i64 0, i64 0, i64 0, i32 0, null, metadata !830, i32 0, i32 0} ; [ DW_TAG_subroutine_type ]
!830 = metadata !{metadata !824, metadata !824, metadata !139, metadata !815}
!831 = metadata !{i32 786478, i32 0, metadata !806, metadata !"move", metadata !"move", metadata !"_ZNSt11char_traitsIcE4moveEPcPKcj", metadata !808, i32 267, metadata !832, i1 false, i1 false, i32 0, i32 0, null, i32 256, i1 false, null, null, i32 0, metadata !88, i32 267} ; [ DW_TAG_subprogram ]
!832 = metadata !{i32 786453, i32 0, metadata !"", i32 0, i32 0, i64 0, i64 0, i64 0, i32 0, null, metadata !833, i32 0, i32 0} ; [ DW_TAG_subroutine_type ]
!833 = metadata !{metadata !834, metadata !834, metadata !824, metadata !139}
!834 = metadata !{i32 786447, null, metadata !"", null, i32 0, i64 32, i64 32, i64 0, i32 0, metadata !814} ; [ DW_TAG_pointer_type ]
!835 = metadata !{i32 786478, i32 0, metadata !806, metadata !"copy", metadata !"copy", metadata !"_ZNSt11char_traitsIcE4copyEPcPKcj", metadata !808, i32 271, metadata !832, i1 false, i1 false, i32 0, i32 0, null, i32 256, i1 false, null, null, i32 0, metadata !88, i32 271} ; [ DW_TAG_subprogram ]
!836 = metadata !{i32 786478, i32 0, metadata !806, metadata !"assign", metadata !"assign", metadata !"_ZNSt11char_traitsIcE6assignEPcjc", metadata !808, i32 275, metadata !837, i1 false, i1 false, i32 0, i32 0, null, i32 256, i1 false, null, null, i32 0, metadata !88, i32 275} ; [ DW_TAG_subprogram ]
!837 = metadata !{i32 786453, i32 0, metadata !"", i32 0, i32 0, i64 0, i64 0, i64 0, i32 0, null, metadata !838, i32 0, i32 0} ; [ DW_TAG_subroutine_type ]
!838 = metadata !{metadata !834, metadata !834, metadata !139, metadata !814}
!839 = metadata !{i32 786478, i32 0, metadata !806, metadata !"to_char_type", metadata !"to_char_type", metadata !"_ZNSt11char_traitsIcE12to_char_typeERKi", metadata !808, i32 279, metadata !840, i1 false, i1 false, i32 0, i32 0, null, i32 256, i1 false, null, null, i32 0, metadata !88, i32 279} ; [ DW_TAG_subprogram ]
!840 = metadata !{i32 786453, i32 0, metadata !"", i32 0, i32 0, i64 0, i64 0, i64 0, i32 0, null, metadata !841, i32 0, i32 0} ; [ DW_TAG_subroutine_type ]
!841 = metadata !{metadata !814, metadata !842}
!842 = metadata !{i32 786448, null, null, null, i32 0, i64 0, i64 0, i64 0, i32 0, metadata !843} ; [ DW_TAG_reference_type ]
!843 = metadata !{i32 786470, null, metadata !"", null, i32 0, i64 0, i64 0, i64 0, i32 0, metadata !844} ; [ DW_TAG_const_type ]
!844 = metadata !{i32 786454, metadata !806, metadata !"int_type", metadata !808, i32 237, i64 0, i64 0, i64 0, i32 0, metadata !56} ; [ DW_TAG_typedef ]
!845 = metadata !{i32 786478, i32 0, metadata !806, metadata !"to_int_type", metadata !"to_int_type", metadata !"_ZNSt11char_traitsIcE11to_int_typeERKc", metadata !808, i32 285, metadata !846, i1 false, i1 false, i32 0, i32 0, null, i32 256, i1 false, null, null, i32 0, metadata !88, i32 285} ; [ DW_TAG_subprogram ]
!846 = metadata !{i32 786453, i32 0, metadata !"", i32 0, i32 0, i64 0, i64 0, i64 0, i32 0, null, metadata !847, i32 0, i32 0} ; [ DW_TAG_subroutine_type ]
!847 = metadata !{metadata !844, metadata !815}
!848 = metadata !{i32 786478, i32 0, metadata !806, metadata !"eq_int_type", metadata !"eq_int_type", metadata !"_ZNSt11char_traitsIcE11eq_int_typeERKiS2_", metadata !808, i32 289, metadata !849, i1 false, i1 false, i32 0, i32 0, null, i32 256, i1 false, null, null, i32 0, metadata !88, i32 289} ; [ DW_TAG_subprogram ]
!849 = metadata !{i32 786453, i32 0, metadata !"", i32 0, i32 0, i64 0, i64 0, i64 0, i32 0, null, metadata !850, i32 0, i32 0} ; [ DW_TAG_subroutine_type ]
!850 = metadata !{metadata !238, metadata !842, metadata !842}
!851 = metadata !{i32 786478, i32 0, metadata !806, metadata !"eof", metadata !"eof", metadata !"_ZNSt11char_traitsIcE3eofEv", metadata !808, i32 293, metadata !852, i1 false, i1 false, i32 0, i32 0, null, i32 256, i1 false, null, null, i32 0, metadata !88, i32 293} ; [ DW_TAG_subprogram ]
!852 = metadata !{i32 786453, i32 0, metadata !"", i32 0, i32 0, i64 0, i64 0, i64 0, i32 0, null, metadata !853, i32 0, i32 0} ; [ DW_TAG_subroutine_type ]
!853 = metadata !{metadata !844}
!854 = metadata !{i32 786478, i32 0, metadata !806, metadata !"not_eof", metadata !"not_eof", metadata !"_ZNSt11char_traitsIcE7not_eofERKi", metadata !808, i32 297, metadata !855, i1 false, i1 false, i32 0, i32 0, null, i32 256, i1 false, null, null, i32 0, metadata !88, i32 297} ; [ DW_TAG_subprogram ]
!855 = metadata !{i32 786453, i32 0, metadata !"", i32 0, i32 0, i64 0, i64 0, i64 0, i32 0, null, metadata !856, i32 0, i32 0} ; [ DW_TAG_subroutine_type ]
!856 = metadata !{metadata !844, metadata !842}
!857 = metadata !{metadata !804}
!858 = metadata !{i32 786479, null, metadata !"_Alloc", metadata !316, null, i32 0, i32 0} ; [ DW_TAG_template_type_parameter ]
!859 = metadata !{i32 786447, i32 0, metadata !"", i32 0, i32 0, i64 32, i64 32, i64 0, i32 64, metadata !288} ; [ DW_TAG_pointer_type ]
!860 = metadata !{i32 786478, i32 0, metadata !115, metadata !"operator==", metadata !"operator==", metadata !"_ZNKSt6localeeqERKS_", metadata !117, i32 226, metadata !861, i1 false, i1 false, i32 0, i32 0, null, i32 256, i1 false, null, null, i32 0, metadata !88, i32 226} ; [ DW_TAG_subprogram ]
!861 = metadata !{i32 786453, i32 0, metadata !"", i32 0, i32 0, i64 0, i64 0, i64 0, i32 0, null, metadata !862, i32 0, i32 0} ; [ DW_TAG_subroutine_type ]
!862 = metadata !{metadata !238, metadata !859, metadata !287}
!863 = metadata !{i32 786478, i32 0, metadata !115, metadata !"operator!=", metadata !"operator!=", metadata !"_ZNKSt6localeneERKS_", metadata !117, i32 235, metadata !861, i1 false, i1 false, i32 0, i32 0, null, i32 256, i1 false, null, null, i32 0, metadata !88, i32 235} ; [ DW_TAG_subprogram ]
!864 = metadata !{i32 786478, i32 0, metadata !115, metadata !"global", metadata !"global", metadata !"_ZNSt6locale6globalERKS_", metadata !117, i32 270, metadata !865, i1 false, i1 false, i32 0, i32 0, null, i32 256, i1 false, null, null, i32 0, metadata !88, i32 270} ; [ DW_TAG_subprogram ]
!865 = metadata !{i32 786453, i32 0, metadata !"", i32 0, i32 0, i64 0, i64 0, i64 0, i32 0, null, metadata !866, i32 0, i32 0} ; [ DW_TAG_subroutine_type ]
!866 = metadata !{metadata !115, metadata !287}
!867 = metadata !{i32 786478, i32 0, metadata !115, metadata !"classic", metadata !"classic", metadata !"_ZNSt6locale7classicEv", metadata !117, i32 276, metadata !868, i1 false, i1 false, i32 0, i32 0, null, i32 256, i1 false, null, null, i32 0, metadata !88, i32 276} ; [ DW_TAG_subprogram ]
!868 = metadata !{i32 786453, i32 0, metadata !"", i32 0, i32 0, i64 0, i64 0, i64 0, i32 0, null, metadata !869, i32 0, i32 0} ; [ DW_TAG_subroutine_type ]
!869 = metadata !{metadata !287}
!870 = metadata !{i32 786478, i32 0, metadata !115, metadata !"locale", metadata !"locale", metadata !"", metadata !117, i32 311, metadata !871, i1 false, i1 false, i32 0, i32 0, null, i32 385, i1 false, null, null, i32 0, metadata !88, i32 311} ; [ DW_TAG_subprogram ]
!871 = metadata !{i32 786453, i32 0, metadata !"", i32 0, i32 0, i64 0, i64 0, i64 0, i32 0, null, metadata !872, i32 0, i32 0} ; [ DW_TAG_subroutine_type ]
!872 = metadata !{null, metadata !283, metadata !120}
!873 = metadata !{i32 786478, i32 0, metadata !115, metadata !"_S_initialize", metadata !"_S_initialize", metadata !"_ZNSt6locale13_S_initializeEv", metadata !117, i32 314, metadata !133, i1 false, i1 false, i32 0, i32 0, null, i32 257, i1 false, null, null, i32 0, metadata !88, i32 314} ; [ DW_TAG_subprogram ]
!874 = metadata !{i32 786478, i32 0, metadata !115, metadata !"_S_initialize_once", metadata !"_S_initialize_once", metadata !"_ZNSt6locale18_S_initialize_onceEv", metadata !117, i32 317, metadata !133, i1 false, i1 false, i32 0, i32 0, null, i32 257, i1 false, null, null, i32 0, metadata !88, i32 317} ; [ DW_TAG_subprogram ]
!875 = metadata !{i32 786478, i32 0, metadata !115, metadata !"_S_normalize_category", metadata !"_S_normalize_category", metadata !"_ZNSt6locale21_S_normalize_categoryEi", metadata !117, i32 320, metadata !876, i1 false, i1 false, i32 0, i32 0, null, i32 257, i1 false, null, null, i32 0, metadata !88, i32 320} ; [ DW_TAG_subprogram ]
!876 = metadata !{i32 786453, i32 0, metadata !"", i32 0, i32 0, i64 0, i64 0, i64 0, i32 0, null, metadata !877, i32 0, i32 0} ; [ DW_TAG_subroutine_type ]
!877 = metadata !{metadata !243, metadata !243}
!878 = metadata !{i32 786478, i32 0, metadata !115, metadata !"_M_coalesce", metadata !"_M_coalesce", metadata !"_ZNSt6locale11_M_coalesceERKS_S1_i", metadata !117, i32 323, metadata !296, i1 false, i1 false, i32 0, i32 0, null, i32 257, i1 false, null, null, i32 0, metadata !88, i32 323} ; [ DW_TAG_subprogram ]
!879 = metadata !{i32 786474, metadata !115, null, metadata !117, i32 0, i64 0, i64 0, i64 0, i32 0, metadata !121} ; [ DW_TAG_friend ]
!880 = metadata !{i32 786474, metadata !115, null, metadata !117, i32 0, i64 0, i64 0, i64 0, i32 0, metadata !128} ; [ DW_TAG_friend ]
!881 = metadata !{i32 786478, i32 0, metadata !49, metadata !"register_callback", metadata !"register_callback", metadata !"_ZNSt8ios_base17register_callbackEPFvNS_5eventERS_iEi", metadata !5, i32 450, metadata !882, i1 false, i1 false, i32 0, i32 0, null, i32 256, i1 false, null, null, i32 0, metadata !88, i32 450} ; [ DW_TAG_subprogram ]
!882 = metadata !{i32 786453, i32 0, metadata !"", i32 0, i32 0, i64 0, i64 0, i64 0, i32 0, null, metadata !883, i32 0, i32 0} ; [ DW_TAG_subroutine_type ]
!883 = metadata !{null, metadata !884, metadata !76, metadata !56}
!884 = metadata !{i32 786447, i32 0, metadata !"", i32 0, i32 0, i64 32, i64 32, i64 0, i32 64, metadata !49} ; [ DW_TAG_pointer_type ]
!885 = metadata !{i32 786478, i32 0, metadata !49, metadata !"_M_call_callbacks", metadata !"_M_call_callbacks", metadata !"_ZNSt8ios_base17_M_call_callbacksENS_5eventE", metadata !5, i32 494, metadata !886, i1 false, i1 false, i32 0, i32 0, null, i32 258, i1 false, null, null, i32 0, metadata !88, i32 494} ; [ DW_TAG_subprogram ]
!886 = metadata !{i32 786453, i32 0, metadata !"", i32 0, i32 0, i64 0, i64 0, i64 0, i32 0, null, metadata !887, i32 0, i32 0} ; [ DW_TAG_subroutine_type ]
!887 = metadata !{null, metadata !884, metadata !48}
!888 = metadata !{i32 786478, i32 0, metadata !49, metadata !"_M_dispose_callbacks", metadata !"_M_dispose_callbacks", metadata !"_ZNSt8ios_base20_M_dispose_callbacksEv", metadata !5, i32 497, metadata !889, i1 false, i1 false, i32 0, i32 0, null, i32 258, i1 false, null, null, i32 0, metadata !88, i32 497} ; [ DW_TAG_subprogram ]
!889 = metadata !{i32 786453, i32 0, metadata !"", i32 0, i32 0, i64 0, i64 0, i64 0, i32 0, null, metadata !890, i32 0, i32 0} ; [ DW_TAG_subroutine_type ]
!890 = metadata !{null, metadata !884}
!891 = metadata !{i32 786478, i32 0, metadata !49, metadata !"_M_grow_words", metadata !"_M_grow_words", metadata !"_ZNSt8ios_base13_M_grow_wordsEib", metadata !5, i32 520, metadata !892, i1 false, i1 false, i32 0, i32 0, null, i32 258, i1 false, null, null, i32 0, metadata !88, i32 520} ; [ DW_TAG_subprogram ]
!892 = metadata !{i32 786453, i32 0, metadata !"", i32 0, i32 0, i64 0, i64 0, i64 0, i32 0, null, metadata !893, i32 0, i32 0} ; [ DW_TAG_subroutine_type ]
!893 = metadata !{metadata !894, metadata !884, metadata !56, metadata !238}
!894 = metadata !{i32 786448, null, null, null, i32 0, i64 0, i64 0, i64 0, i32 0, metadata !97} ; [ DW_TAG_reference_type ]
!895 = metadata !{i32 786478, i32 0, metadata !49, metadata !"_M_init", metadata !"_M_init", metadata !"_ZNSt8ios_base7_M_initEv", metadata !5, i32 526, metadata !889, i1 false, i1 false, i32 0, i32 0, null, i32 258, i1 false, null, null, i32 0, metadata !88, i32 526} ; [ DW_TAG_subprogram ]
!896 = metadata !{i32 786478, i32 0, metadata !49, metadata !"flags", metadata !"flags", metadata !"_ZNKSt8ios_base5flagsEv", metadata !5, i32 552, metadata !897, i1 false, i1 false, i32 0, i32 0, null, i32 256, i1 false, null, null, i32 0, metadata !88, i32 552} ; [ DW_TAG_subprogram ]
!897 = metadata !{i32 786453, i32 0, metadata !"", i32 0, i32 0, i64 0, i64 0, i64 0, i32 0, null, metadata !898, i32 0, i32 0} ; [ DW_TAG_subroutine_type ]
!898 = metadata !{metadata !66, metadata !899}
!899 = metadata !{i32 786447, i32 0, metadata !"", i32 0, i32 0, i64 32, i64 32, i64 0, i32 64, metadata !900} ; [ DW_TAG_pointer_type ]
!900 = metadata !{i32 786470, null, metadata !"", null, i32 0, i64 0, i64 0, i64 0, i32 0, metadata !49} ; [ DW_TAG_const_type ]
!901 = metadata !{i32 786478, i32 0, metadata !49, metadata !"flags", metadata !"flags", metadata !"_ZNSt8ios_base5flagsESt13_Ios_Fmtflags", metadata !5, i32 563, metadata !902, i1 false, i1 false, i32 0, i32 0, null, i32 256, i1 false, null, null, i32 0, metadata !88, i32 563} ; [ DW_TAG_subprogram ]
!902 = metadata !{i32 786453, i32 0, metadata !"", i32 0, i32 0, i64 0, i64 0, i64 0, i32 0, null, metadata !903, i32 0, i32 0} ; [ DW_TAG_subroutine_type ]
!903 = metadata !{metadata !66, metadata !884, metadata !66}
!904 = metadata !{i32 786478, i32 0, metadata !49, metadata !"setf", metadata !"setf", metadata !"_ZNSt8ios_base4setfESt13_Ios_Fmtflags", metadata !5, i32 579, metadata !902, i1 false, i1 false, i32 0, i32 0, null, i32 256, i1 false, null, null, i32 0, metadata !88, i32 579} ; [ DW_TAG_subprogram ]
!905 = metadata !{i32 786478, i32 0, metadata !49, metadata !"setf", metadata !"setf", metadata !"_ZNSt8ios_base4setfESt13_Ios_FmtflagsS0_", metadata !5, i32 596, metadata !906, i1 false, i1 false, i32 0, i32 0, null, i32 256, i1 false, null, null, i32 0, metadata !88, i32 596} ; [ DW_TAG_subprogram ]
!906 = metadata !{i32 786453, i32 0, metadata !"", i32 0, i32 0, i64 0, i64 0, i64 0, i32 0, null, metadata !907, i32 0, i32 0} ; [ DW_TAG_subroutine_type ]
!907 = metadata !{metadata !66, metadata !884, metadata !66, metadata !66}
!908 = metadata !{i32 786478, i32 0, metadata !49, metadata !"unsetf", metadata !"unsetf", metadata !"_ZNSt8ios_base6unsetfESt13_Ios_Fmtflags", metadata !5, i32 611, metadata !909, i1 false, i1 false, i32 0, i32 0, null, i32 256, i1 false, null, null, i32 0, metadata !88, i32 611} ; [ DW_TAG_subprogram ]
!909 = metadata !{i32 786453, i32 0, metadata !"", i32 0, i32 0, i64 0, i64 0, i64 0, i32 0, null, metadata !910, i32 0, i32 0} ; [ DW_TAG_subroutine_type ]
!910 = metadata !{null, metadata !884, metadata !66}
!911 = metadata !{i32 786478, i32 0, metadata !49, metadata !"precision", metadata !"precision", metadata !"_ZNKSt8ios_base9precisionEv", metadata !5, i32 622, metadata !912, i1 false, i1 false, i32 0, i32 0, null, i32 256, i1 false, null, null, i32 0, metadata !88, i32 622} ; [ DW_TAG_subprogram ]
!912 = metadata !{i32 786453, i32 0, metadata !"", i32 0, i32 0, i64 0, i64 0, i64 0, i32 0, null, metadata !913, i32 0, i32 0} ; [ DW_TAG_subroutine_type ]
!913 = metadata !{metadata !58, metadata !899}
!914 = metadata !{i32 786478, i32 0, metadata !49, metadata !"precision", metadata !"precision", metadata !"_ZNSt8ios_base9precisionEi", metadata !5, i32 631, metadata !915, i1 false, i1 false, i32 0, i32 0, null, i32 256, i1 false, null, null, i32 0, metadata !88, i32 631} ; [ DW_TAG_subprogram ]
!915 = metadata !{i32 786453, i32 0, metadata !"", i32 0, i32 0, i64 0, i64 0, i64 0, i32 0, null, metadata !916, i32 0, i32 0} ; [ DW_TAG_subroutine_type ]
!916 = metadata !{metadata !58, metadata !884, metadata !58}
!917 = metadata !{i32 786478, i32 0, metadata !49, metadata !"width", metadata !"width", metadata !"_ZNKSt8ios_base5widthEv", metadata !5, i32 645, metadata !912, i1 false, i1 false, i32 0, i32 0, null, i32 256, i1 false, null, null, i32 0, metadata !88, i32 645} ; [ DW_TAG_subprogram ]
!918 = metadata !{i32 786478, i32 0, metadata !49, metadata !"width", metadata !"width", metadata !"_ZNSt8ios_base5widthEi", metadata !5, i32 654, metadata !915, i1 false, i1 false, i32 0, i32 0, null, i32 256, i1 false, null, null, i32 0, metadata !88, i32 654} ; [ DW_TAG_subprogram ]
!919 = metadata !{i32 786478, i32 0, metadata !49, metadata !"sync_with_stdio", metadata !"sync_with_stdio", metadata !"_ZNSt8ios_base15sync_with_stdioEb", metadata !5, i32 673, metadata !920, i1 false, i1 false, i32 0, i32 0, null, i32 256, i1 false, null, null, i32 0, metadata !88, i32 673} ; [ DW_TAG_subprogram ]
!920 = metadata !{i32 786453, i32 0, metadata !"", i32 0, i32 0, i64 0, i64 0, i64 0, i32 0, null, metadata !921, i32 0, i32 0} ; [ DW_TAG_subroutine_type ]
!921 = metadata !{metadata !238, metadata !238}
!922 = metadata !{i32 786478, i32 0, metadata !49, metadata !"imbue", metadata !"imbue", metadata !"_ZNSt8ios_base5imbueERKSt6locale", metadata !5, i32 685, metadata !923, i1 false, i1 false, i32 0, i32 0, null, i32 256, i1 false, null, null, i32 0, metadata !88, i32 685} ; [ DW_TAG_subprogram ]
!923 = metadata !{i32 786453, i32 0, metadata !"", i32 0, i32 0, i64 0, i64 0, i64 0, i32 0, null, metadata !924, i32 0, i32 0} ; [ DW_TAG_subroutine_type ]
!924 = metadata !{metadata !115, metadata !884, metadata !287}
!925 = metadata !{i32 786478, i32 0, metadata !49, metadata !"getloc", metadata !"getloc", metadata !"_ZNKSt8ios_base6getlocEv", metadata !5, i32 696, metadata !926, i1 false, i1 false, i32 0, i32 0, null, i32 256, i1 false, null, null, i32 0, metadata !88, i32 696} ; [ DW_TAG_subprogram ]
!926 = metadata !{i32 786453, i32 0, metadata !"", i32 0, i32 0, i64 0, i64 0, i64 0, i32 0, null, metadata !927, i32 0, i32 0} ; [ DW_TAG_subroutine_type ]
!927 = metadata !{metadata !115, metadata !899}
!928 = metadata !{i32 786478, i32 0, metadata !49, metadata !"_M_getloc", metadata !"_M_getloc", metadata !"_ZNKSt8ios_base9_M_getlocEv", metadata !5, i32 707, metadata !929, i1 false, i1 false, i32 0, i32 0, null, i32 256, i1 false, null, null, i32 0, metadata !88, i32 707} ; [ DW_TAG_subprogram ]
!929 = metadata !{i32 786453, i32 0, metadata !"", i32 0, i32 0, i64 0, i64 0, i64 0, i32 0, null, metadata !930, i32 0, i32 0} ; [ DW_TAG_subroutine_type ]
!930 = metadata !{metadata !287, metadata !899}
!931 = metadata !{i32 786478, i32 0, metadata !49, metadata !"xalloc", metadata !"xalloc", metadata !"_ZNSt8ios_base6xallocEv", metadata !5, i32 726, metadata !54, i1 false, i1 false, i32 0, i32 0, null, i32 256, i1 false, null, null, i32 0, metadata !88, i32 726} ; [ DW_TAG_subprogram ]
!932 = metadata !{i32 786478, i32 0, metadata !49, metadata !"iword", metadata !"iword", metadata !"_ZNSt8ios_base5iwordEi", metadata !5, i32 742, metadata !933, i1 false, i1 false, i32 0, i32 0, null, i32 256, i1 false, null, null, i32 0, metadata !88, i32 742} ; [ DW_TAG_subprogram ]
!933 = metadata !{i32 786453, i32 0, metadata !"", i32 0, i32 0, i64 0, i64 0, i64 0, i32 0, null, metadata !934, i32 0, i32 0} ; [ DW_TAG_subroutine_type ]
!934 = metadata !{metadata !935, metadata !884, metadata !56}
!935 = metadata !{i32 786448, null, null, null, i32 0, i64 0, i64 0, i64 0, i32 0, metadata !102} ; [ DW_TAG_reference_type ]
!936 = metadata !{i32 786478, i32 0, metadata !49, metadata !"pword", metadata !"pword", metadata !"_ZNSt8ios_base5pwordEi", metadata !5, i32 763, metadata !937, i1 false, i1 false, i32 0, i32 0, null, i32 256, i1 false, null, null, i32 0, metadata !88, i32 763} ; [ DW_TAG_subprogram ]
!937 = metadata !{i32 786453, i32 0, metadata !"", i32 0, i32 0, i64 0, i64 0, i64 0, i32 0, null, metadata !938, i32 0, i32 0} ; [ DW_TAG_subroutine_type ]
!938 = metadata !{metadata !939, metadata !884, metadata !56}
!939 = metadata !{i32 786448, null, null, null, i32 0, i64 0, i64 0, i64 0, i32 0, metadata !100} ; [ DW_TAG_reference_type ]
!940 = metadata !{i32 786478, i32 0, metadata !49, metadata !"~ios_base", metadata !"~ios_base", metadata !"", metadata !5, i32 779, metadata !889, i1 false, i1 false, i32 1, i32 0, metadata !49, i32 256, i1 false, null, null, i32 0, metadata !88, i32 779} ; [ DW_TAG_subprogram ]
!941 = metadata !{i32 786478, i32 0, metadata !49, metadata !"ios_base", metadata !"ios_base", metadata !"", metadata !5, i32 782, metadata !889, i1 false, i1 false, i32 0, i32 0, null, i32 258, i1 false, null, null, i32 0, metadata !88, i32 782} ; [ DW_TAG_subprogram ]
!942 = metadata !{i32 786478, i32 0, metadata !49, metadata !"ios_base", metadata !"ios_base", metadata !"", metadata !5, i32 787, metadata !943, i1 false, i1 false, i32 0, i32 0, null, i32 257, i1 false, null, null, i32 0, metadata !88, i32 787} ; [ DW_TAG_subprogram ]
!943 = metadata !{i32 786453, i32 0, metadata !"", i32 0, i32 0, i64 0, i64 0, i64 0, i32 0, null, metadata !944, i32 0, i32 0} ; [ DW_TAG_subroutine_type ]
!944 = metadata !{null, metadata !884, metadata !945}
!945 = metadata !{i32 786448, null, null, null, i32 0, i64 0, i64 0, i64 0, i32 0, metadata !900} ; [ DW_TAG_reference_type ]
!946 = metadata !{i32 786478, i32 0, metadata !49, metadata !"operator=", metadata !"operator=", metadata !"_ZNSt8ios_baseaSERKS_", metadata !5, i32 790, metadata !947, i1 false, i1 false, i32 0, i32 0, null, i32 257, i1 false, null, null, i32 0, metadata !88, i32 790} ; [ DW_TAG_subprogram ]
!947 = metadata !{i32 786453, i32 0, metadata !"", i32 0, i32 0, i64 0, i64 0, i64 0, i32 0, null, metadata !948, i32 0, i32 0} ; [ DW_TAG_subroutine_type ]
!948 = metadata !{metadata !80, metadata !884, metadata !945}
!949 = metadata !{metadata !950, metadata !951, metadata !952}
!950 = metadata !{i32 786472, metadata !"erase_event", i64 0} ; [ DW_TAG_enumerator ]
!951 = metadata !{i32 786472, metadata !"imbue_event", i64 1} ; [ DW_TAG_enumerator ]
!952 = metadata !{i32 786472, metadata !"copyfmt_event", i64 2} ; [ DW_TAG_enumerator ]
!953 = metadata !{metadata !954}
!954 = metadata !{i32 0}
!955 = metadata !{metadata !956}
!956 = metadata !{metadata !957}
!957 = metadata !{i32 786478, i32 0, metadata !958, metadata !"mean_value_accel", metadata !"mean_value_accel", metadata !"_Z16mean_value_accelPiS_i", metadata !958, i32 56, metadata !959, i1 false, i1 true, i32 0, i32 0, null, i32 256, i1 false, void (i32*, i32*, i32)* @_Z16mean_value_accelPiS_i, null, null, metadata !88, i32 57} ; [ DW_TAG_subprogram ]
!958 = metadata !{i32 786473, metadata !"/proj/xhdhdstaff2/kalib/sprite_makefile_dev/apps/cpp/getting_started/dependence_inter/src/mean_value.cpp", metadata !"/proj/xhdhdstaff2/kalib/sprite_makefile_dev/apps/cpp/getting_started/dependence_inter/emu/_sds/vhls", null} ; [ DW_TAG_file_type ]
!959 = metadata !{i32 786453, i32 0, metadata !"", i32 0, i32 0, i64 0, i64 0, i64 0, i32 0, null, metadata !960, i32 0, i32 0} ; [ DW_TAG_subroutine_type ]
!960 = metadata !{null, metadata !961, metadata !961, metadata !56}
!961 = metadata !{i32 786447, null, metadata !"", null, i32 0, i64 32, i64 32, i64 0, i32 0, metadata !56} ; [ DW_TAG_pointer_type ]
!962 = metadata !{metadata !963}
!963 = metadata !{metadata !964, metadata !978, metadata !991, metadata !993, metadata !994, metadata !995, metadata !996, metadata !997, metadata !998, metadata !999, metadata !1000, metadata !1001, metadata !1002, metadata !1003, metadata !1004, metadata !1005, metadata !1006, metadata !1007, metadata !1008, metadata !1009, metadata !1010, metadata !1012, metadata !1013, metadata !1014, metadata !1015, metadata !1018, metadata !1019, metadata !1020, metadata !1021, metadata !1022, metadata !1023, metadata !1026, metadata !1027, metadata !1028, metadata !1030, metadata !1031, metadata !1032, metadata !1033, metadata !1034, metadata !1035, metadata !1036, metadata !1037, metadata !1039, metadata !1050, metadata !1052, metadata !1054, metadata !1055, metadata !1056, metadata !1057, metadata !1059, metadata !1060, metadata !1061, metadata !1063, metadata !1064, metadata !1065, metadata !1066, metadata !1071, metadata !1074, metadata !1075, metadata !1076, metadata !1078, metadata !1079, metadata !1081, metadata !1082, metadata !1085, metadata !1086, metadata !1087, metadata !1088, metadata !1089, metadata !1091, metadata !1097, metadata !1098, metadata !1099, metadata !1100, metadata !1101, metadata !1102, metadata !1103, metadata !1104, metadata !1105, metadata !1106, metadata !1107, metadata !1193, metadata !1194, metadata !1328, metadata !1335, metadata !1336, metadata !1337, metadata !1338, metadata !1339, metadata !2025, metadata !2027, metadata !2028, metadata !2029, metadata !2702, metadata !2704, metadata !2705}
!964 = metadata !{i32 786484, i32 0, metadata !965, metadata !"piecewise_construct", metadata !"piecewise_construct", metadata !"_ZStL19piecewise_construct", metadata !966, i32 75, metadata !967, i32 1, i32 1, %"struct.std::piecewise_construct_t"* @_ZStL19piecewise_construct} ; [ DW_TAG_variable ]
!965 = metadata !{i32 786489, null, metadata !"std", metadata !966, i32 66} ; [ DW_TAG_namespace ]
!966 = metadata !{i32 786473, metadata !"/proj/xbuilds/2017.1_sdx_0419_1/installs/lin64/SDx/2017.1/Vivado_HLS/lnx64/tools/gcc/lib/gcc/x86_64-unknown-linux-gnu/4.6.3/../../../../include/c++/4.6.3/bits/stl_pair.h", metadata !"/proj/xhdhdstaff2/kalib/sprite_makefile_dev/apps/cpp/getting_started/dependence_inter/emu/_sds/vhls", null} ; [ DW_TAG_file_type ]
!967 = metadata !{i32 786470, null, metadata !"", null, i32 0, i64 0, i64 0, i64 0, i32 0, metadata !968} ; [ DW_TAG_const_type ]
!968 = metadata !{i32 786434, metadata !965, metadata !"piecewise_construct_t", metadata !966, i32 72, i64 8, i64 8, i32 0, i32 0, null, metadata !969, i32 0, null, null} ; [ DW_TAG_class_type ]
!969 = metadata !{metadata !970, metadata !975}
!970 = metadata !{i32 786478, i32 0, metadata !968, metadata !"piecewise_construct_t", metadata !"piecewise_construct_t", metadata !"", metadata !966, i32 72, metadata !971, i1 false, i1 false, i32 0, i32 0, null, i32 320, i1 false, null, null, i32 0, metadata !88, i32 72} ; [ DW_TAG_subprogram ]
!971 = metadata !{i32 786453, i32 0, metadata !"", i32 0, i32 0, i64 0, i64 0, i64 0, i32 0, null, metadata !972, i32 0, i32 0} ; [ DW_TAG_subroutine_type ]
!972 = metadata !{null, metadata !973, metadata !974}
!973 = metadata !{i32 786447, i32 0, metadata !"", i32 0, i32 0, i64 32, i64 32, i64 0, i32 64, metadata !968} ; [ DW_TAG_pointer_type ]
!974 = metadata !{i32 786447, null, metadata !"", null, i32 0, i64 32, i64 32, i64 0, i32 0, metadata !968} ; [ DW_TAG_pointer_type ]
!975 = metadata !{i32 786478, i32 0, metadata !968, metadata !"~piecewise_construct_t", metadata !"~piecewise_construct_t", metadata !"", metadata !966, i32 72, metadata !976, i1 false, i1 false, i32 0, i32 0, null, i32 320, i1 false, null, null, i32 0, metadata !88, i32 72} ; [ DW_TAG_subprogram ]
!976 = metadata !{i32 786453, i32 0, metadata !"", i32 0, i32 0, i64 0, i64 0, i64 0, i32 0, null, metadata !977, i32 0, i32 0} ; [ DW_TAG_subroutine_type ]
!977 = metadata !{null, metadata !973}
!978 = metadata !{i32 786484, i32 0, metadata !979, metadata !"allocator_arg", metadata !"allocator_arg", metadata !"_ZStL13allocator_arg", metadata !317, i32 212, metadata !980, i32 1, i32 1, %"struct.std::piecewise_construct_t"* @_ZStL13allocator_arg} ; [ DW_TAG_variable ]
!979 = metadata !{i32 786489, null, metadata !"std", metadata !317, i32 54} ; [ DW_TAG_namespace ]
!980 = metadata !{i32 786470, null, metadata !"", null, i32 0, i64 0, i64 0, i64 0, i32 0, metadata !981} ; [ DW_TAG_const_type ]
!981 = metadata !{i32 786434, metadata !979, metadata !"allocator_arg_t", metadata !317, i32 210, i64 8, i64 8, i32 0, i32 0, null, metadata !982, i32 0, null, null} ; [ DW_TAG_class_type ]
!982 = metadata !{metadata !983, metadata !988}
!983 = metadata !{i32 786478, i32 0, metadata !981, metadata !"allocator_arg_t", metadata !"allocator_arg_t", metadata !"", metadata !317, i32 210, metadata !984, i1 false, i1 false, i32 0, i32 0, null, i32 320, i1 false, null, null, i32 0, metadata !88, i32 210} ; [ DW_TAG_subprogram ]
!984 = metadata !{i32 786453, i32 0, metadata !"", i32 0, i32 0, i64 0, i64 0, i64 0, i32 0, null, metadata !985, i32 0, i32 0} ; [ DW_TAG_subroutine_type ]
!985 = metadata !{null, metadata !986, metadata !987}
!986 = metadata !{i32 786447, i32 0, metadata !"", i32 0, i32 0, i64 32, i64 32, i64 0, i32 64, metadata !981} ; [ DW_TAG_pointer_type ]
!987 = metadata !{i32 786447, null, metadata !"", null, i32 0, i64 32, i64 32, i64 0, i32 0, metadata !981} ; [ DW_TAG_pointer_type ]
!988 = metadata !{i32 786478, i32 0, metadata !981, metadata !"~allocator_arg_t", metadata !"~allocator_arg_t", metadata !"", metadata !317, i32 210, metadata !989, i1 false, i1 false, i32 0, i32 0, null, i32 320, i1 false, null, null, i32 0, metadata !88, i32 210} ; [ DW_TAG_subprogram ]
!989 = metadata !{i32 786453, i32 0, metadata !"", i32 0, i32 0, i64 0, i64 0, i64 0, i32 0, null, metadata !990, i32 0, i32 0} ; [ DW_TAG_subroutine_type ]
!990 = metadata !{null, metadata !986}
!991 = metadata !{i32 786484, i32 0, metadata !49, metadata !"boolalpha", metadata !"boolalpha", metadata !"boolalpha", metadata !5, i32 259, metadata !992, i32 1, i32 1, i17 1} ; [ DW_TAG_variable ]
!992 = metadata !{i32 786470, null, metadata !"", null, i32 0, i64 0, i64 0, i64 0, i32 0, metadata !66} ; [ DW_TAG_const_type ]
!993 = metadata !{i32 786484, i32 0, metadata !49, metadata !"dec", metadata !"dec", metadata !"dec", metadata !5, i32 262, metadata !992, i32 1, i32 1, i17 2} ; [ DW_TAG_variable ]
!994 = metadata !{i32 786484, i32 0, metadata !49, metadata !"fixed", metadata !"fixed", metadata !"fixed", metadata !5, i32 265, metadata !992, i32 1, i32 1, i17 4} ; [ DW_TAG_variable ]
!995 = metadata !{i32 786484, i32 0, metadata !49, metadata !"hex", metadata !"hex", metadata !"hex", metadata !5, i32 268, metadata !992, i32 1, i32 1, i17 8} ; [ DW_TAG_variable ]
!996 = metadata !{i32 786484, i32 0, metadata !49, metadata !"internal", metadata !"internal", metadata !"internal", metadata !5, i32 273, metadata !992, i32 1, i32 1, i17 16} ; [ DW_TAG_variable ]
!997 = metadata !{i32 786484, i32 0, metadata !49, metadata !"left", metadata !"left", metadata !"left", metadata !5, i32 277, metadata !992, i32 1, i32 1, i17 32} ; [ DW_TAG_variable ]
!998 = metadata !{i32 786484, i32 0, metadata !49, metadata !"oct", metadata !"oct", metadata !"oct", metadata !5, i32 280, metadata !992, i32 1, i32 1, i17 64} ; [ DW_TAG_variable ]
!999 = metadata !{i32 786484, i32 0, metadata !49, metadata !"right", metadata !"right", metadata !"right", metadata !5, i32 284, metadata !992, i32 1, i32 1, i17 128} ; [ DW_TAG_variable ]
!1000 = metadata !{i32 786484, i32 0, metadata !49, metadata !"scientific", metadata !"scientific", metadata !"scientific", metadata !5, i32 287, metadata !992, i32 1, i32 1, i17 256} ; [ DW_TAG_variable ]
!1001 = metadata !{i32 786484, i32 0, metadata !49, metadata !"showbase", metadata !"showbase", metadata !"showbase", metadata !5, i32 291, metadata !992, i32 1, i32 1, i17 512} ; [ DW_TAG_variable ]
!1002 = metadata !{i32 786484, i32 0, metadata !49, metadata !"showpoint", metadata !"showpoint", metadata !"showpoint", metadata !5, i32 295, metadata !992, i32 1, i32 1, i17 1024} ; [ DW_TAG_variable ]
!1003 = metadata !{i32 786484, i32 0, metadata !49, metadata !"showpos", metadata !"showpos", metadata !"showpos", metadata !5, i32 298, metadata !992, i32 1, i32 1, i17 2048} ; [ DW_TAG_variable ]
!1004 = metadata !{i32 786484, i32 0, metadata !49, metadata !"skipws", metadata !"skipws", metadata !"skipws", metadata !5, i32 301, metadata !992, i32 1, i32 1, i17 4096} ; [ DW_TAG_variable ]
!1005 = metadata !{i32 786484, i32 0, metadata !49, metadata !"unitbuf", metadata !"unitbuf", metadata !"unitbuf", metadata !5, i32 304, metadata !992, i32 1, i32 1, i17 8192} ; [ DW_TAG_variable ]
!1006 = metadata !{i32 786484, i32 0, metadata !49, metadata !"uppercase", metadata !"uppercase", metadata !"uppercase", metadata !5, i32 308, metadata !992, i32 1, i32 1, i17 16384} ; [ DW_TAG_variable ]
!1007 = metadata !{i32 786484, i32 0, metadata !49, metadata !"adjustfield", metadata !"adjustfield", metadata !"adjustfield", metadata !5, i32 311, metadata !992, i32 1, i32 1, i17 176} ; [ DW_TAG_variable ]
!1008 = metadata !{i32 786484, i32 0, metadata !49, metadata !"basefield", metadata !"basefield", metadata !"basefield", metadata !5, i32 314, metadata !992, i32 1, i32 1, i17 74} ; [ DW_TAG_variable ]
!1009 = metadata !{i32 786484, i32 0, metadata !49, metadata !"floatfield", metadata !"floatfield", metadata !"floatfield", metadata !5, i32 317, metadata !992, i32 1, i32 1, i17 260} ; [ DW_TAG_variable ]
!1010 = metadata !{i32 786484, i32 0, metadata !49, metadata !"badbit", metadata !"badbit", metadata !"badbit", metadata !5, i32 335, metadata !1011, i32 1, i32 1, i17 1} ; [ DW_TAG_variable ]
!1011 = metadata !{i32 786470, null, metadata !"", null, i32 0, i64 0, i64 0, i64 0, i32 0, metadata !68} ; [ DW_TAG_const_type ]
!1012 = metadata !{i32 786484, i32 0, metadata !49, metadata !"eofbit", metadata !"eofbit", metadata !"eofbit", metadata !5, i32 338, metadata !1011, i32 1, i32 1, i17 2} ; [ DW_TAG_variable ]
!1013 = metadata !{i32 786484, i32 0, metadata !49, metadata !"failbit", metadata !"failbit", metadata !"failbit", metadata !5, i32 343, metadata !1011, i32 1, i32 1, i17 4} ; [ DW_TAG_variable ]
!1014 = metadata !{i32 786484, i32 0, metadata !49, metadata !"goodbit", metadata !"goodbit", metadata !"goodbit", metadata !5, i32 346, metadata !1011, i32 1, i32 1, i17 0} ; [ DW_TAG_variable ]
!1015 = metadata !{i32 786484, i32 0, metadata !49, metadata !"app", metadata !"app", metadata !"app", metadata !5, i32 365, metadata !1016, i32 1, i32 1, i17 1} ; [ DW_TAG_variable ]
!1016 = metadata !{i32 786470, null, metadata !"", null, i32 0, i64 0, i64 0, i64 0, i32 0, metadata !1017} ; [ DW_TAG_const_type ]
!1017 = metadata !{i32 786454, metadata !49, metadata !"openmode", metadata !5, i32 362, i64 0, i64 0, i64 0, i32 0, metadata !33} ; [ DW_TAG_typedef ]
!1018 = metadata !{i32 786484, i32 0, metadata !49, metadata !"ate", metadata !"ate", metadata !"ate", metadata !5, i32 368, metadata !1016, i32 1, i32 1, i17 2} ; [ DW_TAG_variable ]
!1019 = metadata !{i32 786484, i32 0, metadata !49, metadata !"binary", metadata !"binary", metadata !"binary", metadata !5, i32 373, metadata !1016, i32 1, i32 1, i17 4} ; [ DW_TAG_variable ]
!1020 = metadata !{i32 786484, i32 0, metadata !49, metadata !"in", metadata !"in", metadata !"in", metadata !5, i32 376, metadata !1016, i32 1, i32 1, i17 8} ; [ DW_TAG_variable ]
!1021 = metadata !{i32 786484, i32 0, metadata !49, metadata !"out", metadata !"out", metadata !"out", metadata !5, i32 379, metadata !1016, i32 1, i32 1, i17 16} ; [ DW_TAG_variable ]
!1022 = metadata !{i32 786484, i32 0, metadata !49, metadata !"trunc", metadata !"trunc", metadata !"trunc", metadata !5, i32 382, metadata !1016, i32 1, i32 1, i17 32} ; [ DW_TAG_variable ]
!1023 = metadata !{i32 786484, i32 0, metadata !49, metadata !"beg", metadata !"beg", metadata !"beg", metadata !5, i32 397, metadata !1024, i32 1, i32 1, i17 0} ; [ DW_TAG_variable ]
!1024 = metadata !{i32 786470, null, metadata !"", null, i32 0, i64 0, i64 0, i64 0, i32 0, metadata !1025} ; [ DW_TAG_const_type ]
!1025 = metadata !{i32 786454, metadata !49, metadata !"seekdir", metadata !5, i32 394, i64 0, i64 0, i64 0, i32 0, metadata !42} ; [ DW_TAG_typedef ]
!1026 = metadata !{i32 786484, i32 0, metadata !49, metadata !"cur", metadata !"cur", metadata !"cur", metadata !5, i32 400, metadata !1024, i32 1, i32 1, i17 1} ; [ DW_TAG_variable ]
!1027 = metadata !{i32 786484, i32 0, metadata !49, metadata !"end", metadata !"end", metadata !"end", metadata !5, i32 403, metadata !1024, i32 1, i32 1, i17 2} ; [ DW_TAG_variable ]
!1028 = metadata !{i32 786484, i32 0, metadata !115, metadata !"none", metadata !"none", metadata !"none", metadata !117, i32 99, metadata !1029, i32 1, i32 1, i32 0} ; [ DW_TAG_variable ]
!1029 = metadata !{i32 786470, null, metadata !"", null, i32 0, i64 0, i64 0, i64 0, i32 0, metadata !243} ; [ DW_TAG_const_type ]
!1030 = metadata !{i32 786484, i32 0, metadata !115, metadata !"ctype", metadata !"ctype", metadata !"ctype", metadata !117, i32 100, metadata !1029, i32 1, i32 1, i32 1} ; [ DW_TAG_variable ]
!1031 = metadata !{i32 786484, i32 0, metadata !115, metadata !"numeric", metadata !"numeric", metadata !"numeric", metadata !117, i32 101, metadata !1029, i32 1, i32 1, i32 2} ; [ DW_TAG_variable ]
!1032 = metadata !{i32 786484, i32 0, metadata !115, metadata !"collate", metadata !"collate", metadata !"collate", metadata !117, i32 102, metadata !1029, i32 1, i32 1, i32 4} ; [ DW_TAG_variable ]
!1033 = metadata !{i32 786484, i32 0, metadata !115, metadata !"time", metadata !"time", metadata !"time", metadata !117, i32 103, metadata !1029, i32 1, i32 1, i32 8} ; [ DW_TAG_variable ]
!1034 = metadata !{i32 786484, i32 0, metadata !115, metadata !"monetary", metadata !"monetary", metadata !"monetary", metadata !117, i32 104, metadata !1029, i32 1, i32 1, i32 16} ; [ DW_TAG_variable ]
!1035 = metadata !{i32 786484, i32 0, metadata !115, metadata !"messages", metadata !"messages", metadata !"messages", metadata !117, i32 105, metadata !1029, i32 1, i32 1, i32 32} ; [ DW_TAG_variable ]
!1036 = metadata !{i32 786484, i32 0, metadata !115, metadata !"all", metadata !"all", metadata !"all", metadata !117, i32 106, metadata !1029, i32 1, i32 1, i32 63} ; [ DW_TAG_variable ]
!1037 = metadata !{i32 786484, i32 0, metadata !308, metadata !"npos", metadata !"npos", metadata !"npos", metadata !312, i32 279, metadata !1038, i32 1, i32 1, i32 -1} ; [ DW_TAG_variable ]
!1038 = metadata !{i32 786470, null, metadata !"", null, i32 0, i64 0, i64 0, i64 0, i32 0, metadata !403} ; [ DW_TAG_const_type ]
!1039 = metadata !{i32 786484, i32 0, metadata !1040, metadata !"__ioinit", metadata !"__ioinit", metadata !"_ZStL8__ioinit", metadata !1041, i32 74, metadata !1042, i32 1, i32 1, %"struct.std::piecewise_construct_t"* @_ZStL8__ioinit} ; [ DW_TAG_variable ]
!1040 = metadata !{i32 786489, null, metadata !"std", metadata !1041, i32 42} ; [ DW_TAG_namespace ]
!1041 = metadata !{i32 786473, metadata !"/proj/xbuilds/2017.1_sdx_0419_1/installs/lin64/SDx/2017.1/Vivado_HLS/lnx64/tools/gcc/lib/gcc/x86_64-unknown-linux-gnu/4.6.3/../../../../include/c++/4.6.3/iostream", metadata !"/proj/xhdhdstaff2/kalib/sprite_makefile_dev/apps/cpp/getting_started/dependence_inter/emu/_sds/vhls", null} ; [ DW_TAG_file_type ]
!1042 = metadata !{i32 786434, metadata !49, metadata !"Init", metadata !5, i32 534, i64 8, i64 8, i32 0, i32 0, null, metadata !1043, i32 0, null, null} ; [ DW_TAG_class_type ]
!1043 = metadata !{metadata !1044, metadata !1048, metadata !1049}
!1044 = metadata !{i32 786478, i32 0, metadata !1042, metadata !"Init", metadata !"Init", metadata !"", metadata !5, i32 538, metadata !1045, i1 false, i1 false, i32 0, i32 0, null, i32 256, i1 false, null, null, i32 0, metadata !88, i32 538} ; [ DW_TAG_subprogram ]
!1045 = metadata !{i32 786453, i32 0, metadata !"", i32 0, i32 0, i64 0, i64 0, i64 0, i32 0, null, metadata !1046, i32 0, i32 0} ; [ DW_TAG_subroutine_type ]
!1046 = metadata !{null, metadata !1047}
!1047 = metadata !{i32 786447, i32 0, metadata !"", i32 0, i32 0, i64 32, i64 32, i64 0, i32 64, metadata !1042} ; [ DW_TAG_pointer_type ]
!1048 = metadata !{i32 786478, i32 0, metadata !1042, metadata !"~Init", metadata !"~Init", metadata !"", metadata !5, i32 539, metadata !1045, i1 false, i1 false, i32 0, i32 0, null, i32 256, i1 false, null, null, i32 0, metadata !88, i32 539} ; [ DW_TAG_subprogram ]
!1049 = metadata !{i32 786474, metadata !1042, null, metadata !5, i32 0, i64 0, i64 0, i64 0, i32 0, metadata !49} ; [ DW_TAG_friend ]
!1050 = metadata !{i32 786484, i32 0, null, metadata !"signgam", metadata !"signgam", metadata !"", metadata !1051, i32 157, metadata !56, i32 0, i32 1, i32* @signgam} ; [ DW_TAG_variable ]
!1051 = metadata !{i32 786473, metadata !"/usr/include/math.h", metadata !"/proj/xhdhdstaff2/kalib/sprite_makefile_dev/apps/cpp/getting_started/dependence_inter/emu/_sds/vhls", null} ; [ DW_TAG_file_type ]
!1052 = metadata !{i32 786484, i32 0, null, metadata !"__digits", metadata !"__digits", metadata !"_ZN9__gnu_cxx24__numeric_traits_integer8__digitsE", metadata !1053, i32 76, metadata !168, i32 0, i32 1, i32* @_ZN9__gnu_cxx24__numeric_traits_integer8__digitsE} ; [ DW_TAG_variable ]
!1053 = metadata !{i32 786473, metadata !"/proj/xbuilds/2017.1_sdx_0419_1/installs/lin64/SDx/2017.1/Vivado_HLS/lnx64/tools/gcc/lib/gcc/x86_64-unknown-linux-gnu/4.6.3/../../../../include/c++/4.6.3/ext/numeric_traits.h", metadata !"/proj/xhdhdstaff2/kalib/sprite_makefile_dev/apps/cpp/getting_started/dependence_inter/emu/_sds/vhls", null} ; [ DW_TAG_file_type ]
!1054 = metadata !{i32 786484, i32 0, null, metadata !"__max_digits10", metadata !"__max_digits10", metadata !"_ZN9__gnu_cxx25__numeric_traits_floating14__max_digits10E", metadata !1053, i32 111, metadata !168, i32 0, i32 1, i32* @_ZN9__gnu_cxx25__numeric_traits_floating14__max_digits10E} ; [ DW_TAG_variable ]
!1055 = metadata !{i32 786484, i32 0, null, metadata !"__digits10", metadata !"__digits10", metadata !"_ZN9__gnu_cxx25__numeric_traits_floating10__digits10E", metadata !1053, i32 117, metadata !168, i32 0, i32 1, i32* @_ZN9__gnu_cxx25__numeric_traits_floating10__digits10E} ; [ DW_TAG_variable ]
!1056 = metadata !{i32 786484, i32 0, null, metadata !"__max_exponent10", metadata !"__max_exponent10", metadata !"_ZN9__gnu_cxx25__numeric_traits_floating16__max_exponent10E", metadata !1053, i32 120, metadata !168, i32 0, i32 1, i32* @_ZN9__gnu_cxx25__numeric_traits_floating16__max_exponent10E} ; [ DW_TAG_variable ]
!1057 = metadata !{i32 786484, i32 0, null, metadata !"__daylight", metadata !"__daylight", metadata !"", metadata !1058, i32 277, metadata !56, i32 0, i32 1, i32* @__daylight} ; [ DW_TAG_variable ]
!1058 = metadata !{i32 786473, metadata !"/usr/include/time.h", metadata !"/proj/xhdhdstaff2/kalib/sprite_makefile_dev/apps/cpp/getting_started/dependence_inter/emu/_sds/vhls", null} ; [ DW_TAG_file_type ]
!1059 = metadata !{i32 786484, i32 0, null, metadata !"daylight", metadata !"daylight", metadata !"", metadata !1058, i32 291, metadata !56, i32 0, i32 1, i32* @daylight} ; [ DW_TAG_variable ]
!1060 = metadata !{i32 786484, i32 0, null, metadata !"getdate_err", metadata !"getdate_err", metadata !"", metadata !1058, i32 390, metadata !56, i32 0, i32 1, i32* @getdate_err} ; [ DW_TAG_variable ]
!1061 = metadata !{i32 786484, i32 0, null, metadata !"optarg", metadata !"optarg", metadata !"", metadata !1062, i32 59, metadata !213, i32 0, i32 1, i8** @optarg} ; [ DW_TAG_variable ]
!1062 = metadata !{i32 786473, metadata !"/usr/include/getopt.h", metadata !"/proj/xhdhdstaff2/kalib/sprite_makefile_dev/apps/cpp/getting_started/dependence_inter/emu/_sds/vhls", null} ; [ DW_TAG_file_type ]
!1063 = metadata !{i32 786484, i32 0, null, metadata !"optind", metadata !"optind", metadata !"", metadata !1062, i32 73, metadata !56, i32 0, i32 1, i32* @optind} ; [ DW_TAG_variable ]
!1064 = metadata !{i32 786484, i32 0, null, metadata !"opterr", metadata !"opterr", metadata !"", metadata !1062, i32 78, metadata !56, i32 0, i32 1, i32* @opterr} ; [ DW_TAG_variable ]
!1065 = metadata !{i32 786484, i32 0, null, metadata !"optopt", metadata !"optopt", metadata !"", metadata !1062, i32 82, metadata !56, i32 0, i32 1, i32* @optopt} ; [ DW_TAG_variable ]
!1066 = metadata !{i32 786484, i32 0, metadata !1067, metadata !"nothrow", metadata !"nothrow", metadata !"_ZSt7nothrow", metadata !1068, i32 70, metadata !1069, i32 0, i32 1, %"struct.std::piecewise_construct_t"* @_ZSt7nothrow} ; [ DW_TAG_variable ]
!1067 = metadata !{i32 786489, null, metadata !"std", metadata !1068, i32 47} ; [ DW_TAG_namespace ]
!1068 = metadata !{i32 786473, metadata !"/proj/xbuilds/2017.1_sdx_0419_1/installs/lin64/SDx/2017.1/Vivado_HLS/lnx64/tools/gcc/lib/gcc/x86_64-unknown-linux-gnu/4.6.3/../../../../include/c++/4.6.3/new", metadata !"/proj/xhdhdstaff2/kalib/sprite_makefile_dev/apps/cpp/getting_started/dependence_inter/emu/_sds/vhls", null} ; [ DW_TAG_file_type ]
!1069 = metadata !{i32 786470, null, metadata !"", null, i32 0, i64 0, i64 0, i64 0, i32 0, metadata !1070} ; [ DW_TAG_const_type ]
!1070 = metadata !{i32 786434, metadata !1067, metadata !"nothrow_t", metadata !1068, i32 68, i64 8, i64 8, i32 0, i32 0, null, metadata !954, i32 0, null, null} ; [ DW_TAG_class_type ]
!1071 = metadata !{i32 786484, i32 0, null, metadata !"_IO_2_1_stdin_", metadata !"_IO_2_1_stdin_", metadata !"", metadata !1072, i32 346, metadata !1073, i32 0, i32 1, %"struct.std::piecewise_construct_t"* @_IO_2_1_stdin_} ; [ DW_TAG_variable ]
!1072 = metadata !{i32 786473, metadata !"/usr/include/libio.h", metadata !"/proj/xhdhdstaff2/kalib/sprite_makefile_dev/apps/cpp/getting_started/dependence_inter/emu/_sds/vhls", null} ; [ DW_TAG_file_type ]
!1073 = metadata !{i32 786434, null, metadata !"_IO_FILE_plus", metadata !1072, i32 344, i32 0, i32 0, i32 0, i32 4, null, null, i32 0} ; [ DW_TAG_class_type ]
!1074 = metadata !{i32 786484, i32 0, null, metadata !"_IO_2_1_stdout_", metadata !"_IO_2_1_stdout_", metadata !"", metadata !1072, i32 347, metadata !1073, i32 0, i32 1, %"struct.std::piecewise_construct_t"* @_IO_2_1_stdout_} ; [ DW_TAG_variable ]
!1075 = metadata !{i32 786484, i32 0, null, metadata !"_IO_2_1_stderr_", metadata !"_IO_2_1_stderr_", metadata !"", metadata !1072, i32 348, metadata !1073, i32 0, i32 1, %"struct.std::piecewise_construct_t"* @_IO_2_1_stderr_} ; [ DW_TAG_variable ]
!1076 = metadata !{i32 786484, i32 0, null, metadata !"sys_nerr", metadata !"sys_nerr", metadata !"", metadata !1077, i32 27, metadata !56, i32 0, i32 1, i32* @sys_nerr} ; [ DW_TAG_variable ]
!1077 = metadata !{i32 786473, metadata !"/usr/include/bits/sys_errlist.h", metadata !"/proj/xhdhdstaff2/kalib/sprite_makefile_dev/apps/cpp/getting_started/dependence_inter/emu/_sds/vhls", null} ; [ DW_TAG_file_type ]
!1078 = metadata !{i32 786484, i32 0, null, metadata !"_sys_nerr", metadata !"_sys_nerr", metadata !"", metadata !1077, i32 31, metadata !56, i32 0, i32 1, i32* @_sys_nerr} ; [ DW_TAG_variable ]
!1079 = metadata !{i32 786484, i32 0, null, metadata !"program_invocation_name", metadata !"program_invocation_name", metadata !"", metadata !1080, i32 55, metadata !213, i32 0, i32 1, i8** @program_invocation_name} ; [ DW_TAG_variable ]
!1080 = metadata !{i32 786473, metadata !"/usr/include/errno.h", metadata !"/proj/xhdhdstaff2/kalib/sprite_makefile_dev/apps/cpp/getting_started/dependence_inter/emu/_sds/vhls", null} ; [ DW_TAG_file_type ]
!1081 = metadata !{i32 786484, i32 0, null, metadata !"program_invocation_short_name", metadata !"program_invocation_short_name", metadata !"", metadata !1080, i32 55, metadata !213, i32 0, i32 1, i8** @program_invocation_short_name} ; [ DW_TAG_variable ]
!1082 = metadata !{i32 786484, i32 0, metadata !115, metadata !"_S_once", metadata !"_S_once", metadata !"_ZNSt6locale7_S_onceE", metadata !117, i32 307, metadata !1083, i32 0, i32 1, i32* @_ZNSt6locale7_S_onceE} ; [ DW_TAG_variable ]
!1083 = metadata !{i32 786454, null, metadata !"__gthread_once_t", metadata !117, i32 46, i64 0, i64 0, i64 0, i32 0, metadata !1084} ; [ DW_TAG_typedef ]
!1084 = metadata !{i32 786454, null, metadata !"pthread_once_t", metadata !117, i32 144, i64 0, i64 0, i64 0, i32 0, metadata !56} ; [ DW_TAG_typedef ]
!1085 = metadata !{i32 786484, i32 0, metadata !128, metadata !"_S_once", metadata !"_S_once", metadata !"_ZNSt6locale5facet7_S_onceE", metadata !117, i32 353, metadata !1083, i32 0, i32 1, i32* @_ZNSt6locale5facet7_S_onceE} ; [ DW_TAG_variable ]
!1086 = metadata !{i32 786484, i32 0, metadata !251, metadata !"_S_refcount", metadata !"_S_refcount", metadata !"_ZNSt6locale2id11_S_refcountE", metadata !117, i32 456, metadata !83, i32 0, i32 1, i32* @_ZNSt6locale2id11_S_refcountE} ; [ DW_TAG_variable ]
!1087 = metadata !{i32 786484, i32 0, null, metadata !"id", metadata !"id", metadata !"_ZNSt7collate2idE", metadata !117, i32 634, metadata !251, i32 0, i32 1, %"class.std::locale::id"* @_ZNSt7collate2idE} ; [ DW_TAG_variable ]
!1088 = metadata !{i32 786484, i32 0, metadata !1042, metadata !"_S_refcount", metadata !"_S_refcount", metadata !"_ZNSt8ios_base4Init11_S_refcountE", metadata !5, i32 542, metadata !83, i32 0, i32 1, i32* @_ZNSt8ios_base4Init11_S_refcountE} ; [ DW_TAG_variable ]
!1089 = metadata !{i32 786484, i32 0, null, metadata !"id", metadata !"id", metadata !"_ZNSt5ctype2idE", metadata !1090, i32 613, metadata !251, i32 0, i32 1, %"class.std::locale::id"* @_ZNSt5ctype2idE} ; [ DW_TAG_variable ]
!1090 = metadata !{i32 786473, metadata !"/proj/xbuilds/2017.1_sdx_0419_1/installs/lin64/SDx/2017.1/Vivado_HLS/lnx64/tools/gcc/lib/gcc/x86_64-unknown-linux-gnu/4.6.3/../../../../include/c++/4.6.3/bits/locale_facets.h", metadata !"/proj/xhdhdstaff2/kalib/sprite_makefile_dev/apps/cpp/getting_started/dependence_inter/emu/_sds/vhls", null} ; [ DW_TAG_file_type ]
!1091 = metadata !{i32 786484, i32 0, metadata !1092, metadata !"upper", metadata !"upper", metadata !"upper", metadata !1094, i32 50, metadata !1095, i32 1, i32 1, i16 256} ; [ DW_TAG_variable ]
!1092 = metadata !{i32 786434, metadata !1093, metadata !"ctype_base", metadata !1094, i32 42, i64 8, i64 8, i32 0, i32 0, null, metadata !954, i32 0, null, null} ; [ DW_TAG_class_type ]
!1093 = metadata !{i32 786489, null, metadata !"std", metadata !1094, i32 37} ; [ DW_TAG_namespace ]
!1094 = metadata !{i32 786473, metadata !"/proj/xbuilds/2017.1_sdx_0419_1/installs/lin64/SDx/2017.1/Vivado_HLS/lnx64/tools/gcc/lib/gcc/x86_64-unknown-linux-gnu/4.6.3/../../../../include/c++/4.6.3/x86_64-unknown-linux-gnu/32/bits/ctype_base.h", metadata !"/proj/xhdhdstaff2/kalib/sprite_makefile_dev/apps/cpp/getting_started/dependence_inter/emu/_sds/vhls", null} ; [ DW_TAG_file_type ]
!1095 = metadata !{i32 786470, null, metadata !"", null, i32 0, i64 0, i64 0, i64 0, i32 0, metadata !1096} ; [ DW_TAG_const_type ]
!1096 = metadata !{i32 786454, metadata !1092, metadata !"mask", metadata !1094, i32 49, i64 0, i64 0, i64 0, i32 0, metadata !165} ; [ DW_TAG_typedef ]
!1097 = metadata !{i32 786484, i32 0, metadata !1092, metadata !"lower", metadata !"lower", metadata !"lower", metadata !1094, i32 51, metadata !1095, i32 1, i32 1, i16 512} ; [ DW_TAG_variable ]
!1098 = metadata !{i32 786484, i32 0, metadata !1092, metadata !"alpha", metadata !"alpha", metadata !"alpha", metadata !1094, i32 52, metadata !1095, i32 1, i32 1, i16 1024} ; [ DW_TAG_variable ]
!1099 = metadata !{i32 786484, i32 0, metadata !1092, metadata !"digit", metadata !"digit", metadata !"digit", metadata !1094, i32 53, metadata !1095, i32 1, i32 1, i16 2048} ; [ DW_TAG_variable ]
!1100 = metadata !{i32 786484, i32 0, metadata !1092, metadata !"xdigit", metadata !"xdigit", metadata !"xdigit", metadata !1094, i32 54, metadata !1095, i32 1, i32 1, i16 4096} ; [ DW_TAG_variable ]
!1101 = metadata !{i32 786484, i32 0, metadata !1092, metadata !"space", metadata !"space", metadata !"space", metadata !1094, i32 55, metadata !1095, i32 1, i32 1, i16 8192} ; [ DW_TAG_variable ]
!1102 = metadata !{i32 786484, i32 0, metadata !1092, metadata !"print", metadata !"print", metadata !"print", metadata !1094, i32 56, metadata !1095, i32 1, i32 1, i16 16384} ; [ DW_TAG_variable ]
!1103 = metadata !{i32 786484, i32 0, metadata !1092, metadata !"graph", metadata !"graph", metadata !"graph", metadata !1094, i32 57, metadata !1095, i32 1, i32 1, i16 3076} ; [ DW_TAG_variable ]
!1104 = metadata !{i32 786484, i32 0, metadata !1092, metadata !"cntrl", metadata !"cntrl", metadata !"cntrl", metadata !1094, i32 58, metadata !1095, i32 1, i32 1, i16 2} ; [ DW_TAG_variable ]
!1105 = metadata !{i32 786484, i32 0, metadata !1092, metadata !"punct", metadata !"punct", metadata !"punct", metadata !1094, i32 59, metadata !1095, i32 1, i32 1, i16 4} ; [ DW_TAG_variable ]
!1106 = metadata !{i32 786484, i32 0, metadata !1092, metadata !"alnum", metadata !"alnum", metadata !"alnum", metadata !1094, i32 60, metadata !1095, i32 1, i32 1, i16 3072} ; [ DW_TAG_variable ]
!1107 = metadata !{i32 786484, i32 0, metadata !1108, metadata !"table_size", metadata !"table_size", metadata !"table_size", metadata !1090, i32 698, metadata !1192, i32 1, i32 1, i32 256} ; [ DW_TAG_variable ]
!1108 = metadata !{i32 786434, metadata !1109, metadata !"ctype<char>", metadata !1090, i32 674, i64 4352, i64 32, i32 0, i32 0, null, metadata !1110, i32 0, metadata !128, metadata !857} ; [ DW_TAG_class_type ]
!1109 = metadata !{i32 786489, null, metadata !"std", metadata !1090, i32 51} ; [ DW_TAG_namespace ]
!1110 = metadata !{metadata !1111, metadata !1112, metadata !1113, metadata !1114, metadata !1115, metadata !1117, metadata !1118, metadata !1120, metadata !1121, metadata !1125, metadata !1126, metadata !1127, metadata !1131, metadata !1134, metadata !1139, metadata !1143, metadata !1146, metadata !1147, metadata !1151, metadata !1157, metadata !1158, metadata !1159, metadata !1162, metadata !1165, metadata !1168, metadata !1171, metadata !1174, metadata !1177, metadata !1180, metadata !1181, metadata !1182, metadata !1183, metadata !1184, metadata !1185, metadata !1186, metadata !1187, metadata !1188, metadata !1191}
!1111 = metadata !{i32 786460, metadata !1108, null, metadata !1090, i32 0, i64 0, i64 0, i64 0, i32 0, metadata !128} ; [ DW_TAG_inheritance ]
!1112 = metadata !{i32 786460, metadata !1108, null, metadata !1090, i32 0, i64 0, i64 0, i64 0, i32 0, metadata !1092} ; [ DW_TAG_inheritance ]
!1113 = metadata !{i32 786445, metadata !1108, metadata !"_M_c_locale_ctype", metadata !1090, i32 683, i64 32, i64 32, i64 64, i32 2, metadata !148} ; [ DW_TAG_member ]
!1114 = metadata !{i32 786445, metadata !1108, metadata !"_M_del", metadata !1090, i32 684, i64 8, i64 8, i64 96, i32 2, metadata !238} ; [ DW_TAG_member ]
!1115 = metadata !{i32 786445, metadata !1108, metadata !"_M_toupper", metadata !1090, i32 685, i64 32, i64 32, i64 128, i32 2, metadata !1116} ; [ DW_TAG_member ]
!1116 = metadata !{i32 786454, metadata !1092, metadata !"__to_type", metadata !1090, i32 45, i64 0, i64 0, i64 0, i32 0, metadata !167} ; [ DW_TAG_typedef ]
!1117 = metadata !{i32 786445, metadata !1108, metadata !"_M_tolower", metadata !1090, i32 686, i64 32, i64 32, i64 160, i32 2, metadata !1116} ; [ DW_TAG_member ]
!1118 = metadata !{i32 786445, metadata !1108, metadata !"_M_table", metadata !1090, i32 687, i64 32, i64 32, i64 192, i32 2, metadata !1119} ; [ DW_TAG_member ]
!1119 = metadata !{i32 786447, null, metadata !"", null, i32 0, i64 32, i64 32, i64 0, i32 0, metadata !1095} ; [ DW_TAG_pointer_type ]
!1120 = metadata !{i32 786445, metadata !1108, metadata !"_M_widen_ok", metadata !1090, i32 688, i64 8, i64 8, i64 224, i32 2, metadata !174} ; [ DW_TAG_member ]
!1121 = metadata !{i32 786445, metadata !1108, metadata !"_M_widen", metadata !1090, i32 689, i64 2048, i64 8, i64 232, i32 2, metadata !1122} ; [ DW_TAG_member ]
!1122 = metadata !{i32 786433, null, metadata !"", null, i32 0, i64 2048, i64 8, i32 0, i32 0, metadata !174, metadata !1123, i32 0, i32 0} ; [ DW_TAG_array_type ]
!1123 = metadata !{metadata !1124}
!1124 = metadata !{i32 786465, i64 0, i64 255}    ; [ DW_TAG_subrange_type ]
!1125 = metadata !{i32 786445, metadata !1108, metadata !"_M_narrow", metadata !1090, i32 690, i64 2048, i64 8, i64 2280, i32 2, metadata !1122} ; [ DW_TAG_member ]
!1126 = metadata !{i32 786445, metadata !1108, metadata !"_M_narrow_ok", metadata !1090, i32 691, i64 8, i64 8, i64 4328, i32 2, metadata !174} ; [ DW_TAG_member ]
!1127 = metadata !{i32 786478, i32 0, metadata !1108, metadata !"ctype", metadata !"ctype", metadata !"", metadata !1090, i32 711, metadata !1128, i1 false, i1 false, i32 0, i32 0, null, i32 384, i1 false, null, null, i32 0, metadata !88, i32 711} ; [ DW_TAG_subprogram ]
!1128 = metadata !{i32 786453, i32 0, metadata !"", i32 0, i32 0, i64 0, i64 0, i64 0, i32 0, null, metadata !1129, i32 0, i32 0} ; [ DW_TAG_subroutine_type ]
!1129 = metadata !{null, metadata !1130, metadata !1119, metadata !238, metadata !139}
!1130 = metadata !{i32 786447, i32 0, metadata !"", i32 0, i32 0, i64 32, i64 32, i64 0, i32 64, metadata !1108} ; [ DW_TAG_pointer_type ]
!1131 = metadata !{i32 786478, i32 0, metadata !1108, metadata !"ctype", metadata !"ctype", metadata !"", metadata !1090, i32 724, metadata !1132, i1 false, i1 false, i32 0, i32 0, null, i32 384, i1 false, null, null, i32 0, metadata !88, i32 724} ; [ DW_TAG_subprogram ]
!1132 = metadata !{i32 786453, i32 0, metadata !"", i32 0, i32 0, i64 0, i64 0, i64 0, i32 0, null, metadata !1133, i32 0, i32 0} ; [ DW_TAG_subroutine_type ]
!1133 = metadata !{null, metadata !1130, metadata !148, metadata !1119, metadata !238, metadata !139}
!1134 = metadata !{i32 786478, i32 0, metadata !1108, metadata !"is", metadata !"is", metadata !"_ZNKSt5ctypeIcE2isEtc", metadata !1090, i32 737, metadata !1135, i1 false, i1 false, i32 0, i32 0, null, i32 256, i1 false, null, null, i32 0, metadata !88, i32 737} ; [ DW_TAG_subprogram ]
!1135 = metadata !{i32 786453, i32 0, metadata !"", i32 0, i32 0, i64 0, i64 0, i64 0, i32 0, null, metadata !1136, i32 0, i32 0} ; [ DW_TAG_subroutine_type ]
!1136 = metadata !{metadata !238, metadata !1137, metadata !1096, metadata !174}
!1137 = metadata !{i32 786447, i32 0, metadata !"", i32 0, i32 0, i64 32, i64 32, i64 0, i32 64, metadata !1138} ; [ DW_TAG_pointer_type ]
!1138 = metadata !{i32 786470, null, metadata !"", null, i32 0, i64 0, i64 0, i64 0, i32 0, metadata !1108} ; [ DW_TAG_const_type ]
!1139 = metadata !{i32 786478, i32 0, metadata !1108, metadata !"is", metadata !"is", metadata !"_ZNKSt5ctypeIcE2isEPKcS2_Pt", metadata !1090, i32 752, metadata !1140, i1 false, i1 false, i32 0, i32 0, null, i32 256, i1 false, null, null, i32 0, metadata !88, i32 752} ; [ DW_TAG_subprogram ]
!1140 = metadata !{i32 786453, i32 0, metadata !"", i32 0, i32 0, i64 0, i64 0, i64 0, i32 0, null, metadata !1141, i32 0, i32 0} ; [ DW_TAG_subroutine_type ]
!1141 = metadata !{metadata !172, metadata !1137, metadata !172, metadata !172, metadata !1142}
!1142 = metadata !{i32 786447, null, metadata !"", null, i32 0, i64 32, i64 32, i64 0, i32 0, metadata !1096} ; [ DW_TAG_pointer_type ]
!1143 = metadata !{i32 786478, i32 0, metadata !1108, metadata !"scan_is", metadata !"scan_is", metadata !"_ZNKSt5ctypeIcE7scan_isEtPKcS2_", metadata !1090, i32 766, metadata !1144, i1 false, i1 false, i32 0, i32 0, null, i32 256, i1 false, null, null, i32 0, metadata !88, i32 766} ; [ DW_TAG_subprogram ]
!1144 = metadata !{i32 786453, i32 0, metadata !"", i32 0, i32 0, i64 0, i64 0, i64 0, i32 0, null, metadata !1145, i32 0, i32 0} ; [ DW_TAG_subroutine_type ]
!1145 = metadata !{metadata !172, metadata !1137, metadata !1096, metadata !172, metadata !172}
!1146 = metadata !{i32 786478, i32 0, metadata !1108, metadata !"scan_not", metadata !"scan_not", metadata !"_ZNKSt5ctypeIcE8scan_notEtPKcS2_", metadata !1090, i32 780, metadata !1144, i1 false, i1 false, i32 0, i32 0, null, i32 256, i1 false, null, null, i32 0, metadata !88, i32 780} ; [ DW_TAG_subprogram ]
!1147 = metadata !{i32 786478, i32 0, metadata !1108, metadata !"toupper", metadata !"toupper", metadata !"_ZNKSt5ctypeIcE7toupperEc", metadata !1090, i32 795, metadata !1148, i1 false, i1 false, i32 0, i32 0, null, i32 256, i1 false, null, null, i32 0, metadata !88, i32 795} ; [ DW_TAG_subprogram ]
!1148 = metadata !{i32 786453, i32 0, metadata !"", i32 0, i32 0, i64 0, i64 0, i64 0, i32 0, null, metadata !1149, i32 0, i32 0} ; [ DW_TAG_subroutine_type ]
!1149 = metadata !{metadata !1150, metadata !1137, metadata !1150}
!1150 = metadata !{i32 786454, metadata !1108, metadata !"char_type", metadata !1090, i32 679, i64 0, i64 0, i64 0, i32 0, metadata !174} ; [ DW_TAG_typedef ]
!1151 = metadata !{i32 786478, i32 0, metadata !1108, metadata !"toupper", metadata !"toupper", metadata !"_ZNKSt5ctypeIcE7toupperEPcPKc", metadata !1090, i32 812, metadata !1152, i1 false, i1 false, i32 0, i32 0, null, i32 256, i1 false, null, null, i32 0, metadata !88, i32 812} ; [ DW_TAG_subprogram ]
!1152 = metadata !{i32 786453, i32 0, metadata !"", i32 0, i32 0, i64 0, i64 0, i64 0, i32 0, null, metadata !1153, i32 0, i32 0} ; [ DW_TAG_subroutine_type ]
!1153 = metadata !{metadata !1154, metadata !1137, metadata !1156, metadata !1154}
!1154 = metadata !{i32 786447, null, metadata !"", null, i32 0, i64 32, i64 32, i64 0, i32 0, metadata !1155} ; [ DW_TAG_pointer_type ]
!1155 = metadata !{i32 786470, null, metadata !"", null, i32 0, i64 0, i64 0, i64 0, i32 0, metadata !1150} ; [ DW_TAG_const_type ]
!1156 = metadata !{i32 786447, null, metadata !"", null, i32 0, i64 32, i64 32, i64 0, i32 0, metadata !1150} ; [ DW_TAG_pointer_type ]
!1157 = metadata !{i32 786478, i32 0, metadata !1108, metadata !"tolower", metadata !"tolower", metadata !"_ZNKSt5ctypeIcE7tolowerEc", metadata !1090, i32 828, metadata !1148, i1 false, i1 false, i32 0, i32 0, null, i32 256, i1 false, null, null, i32 0, metadata !88, i32 828} ; [ DW_TAG_subprogram ]
!1158 = metadata !{i32 786478, i32 0, metadata !1108, metadata !"tolower", metadata !"tolower", metadata !"_ZNKSt5ctypeIcE7tolowerEPcPKc", metadata !1090, i32 845, metadata !1152, i1 false, i1 false, i32 0, i32 0, null, i32 256, i1 false, null, null, i32 0, metadata !88, i32 845} ; [ DW_TAG_subprogram ]
!1159 = metadata !{i32 786478, i32 0, metadata !1108, metadata !"widen", metadata !"widen", metadata !"_ZNKSt5ctypeIcE5widenEc", metadata !1090, i32 865, metadata !1160, i1 false, i1 false, i32 0, i32 0, null, i32 256, i1 false, null, null, i32 0, metadata !88, i32 865} ; [ DW_TAG_subprogram ]
!1160 = metadata !{i32 786453, i32 0, metadata !"", i32 0, i32 0, i64 0, i64 0, i64 0, i32 0, null, metadata !1161, i32 0, i32 0} ; [ DW_TAG_subroutine_type ]
!1161 = metadata !{metadata !1150, metadata !1137, metadata !174}
!1162 = metadata !{i32 786478, i32 0, metadata !1108, metadata !"widen", metadata !"widen", metadata !"_ZNKSt5ctypeIcE5widenEPKcS2_Pc", metadata !1090, i32 892, metadata !1163, i1 false, i1 false, i32 0, i32 0, null, i32 256, i1 false, null, null, i32 0, metadata !88, i32 892} ; [ DW_TAG_subprogram ]
!1163 = metadata !{i32 786453, i32 0, metadata !"", i32 0, i32 0, i64 0, i64 0, i64 0, i32 0, null, metadata !1164, i32 0, i32 0} ; [ DW_TAG_subroutine_type ]
!1164 = metadata !{metadata !172, metadata !1137, metadata !172, metadata !172, metadata !1156}
!1165 = metadata !{i32 786478, i32 0, metadata !1108, metadata !"narrow", metadata !"narrow", metadata !"_ZNKSt5ctypeIcE6narrowEcc", metadata !1090, i32 923, metadata !1166, i1 false, i1 false, i32 0, i32 0, null, i32 256, i1 false, null, null, i32 0, metadata !88, i32 923} ; [ DW_TAG_subprogram ]
!1166 = metadata !{i32 786453, i32 0, metadata !"", i32 0, i32 0, i64 0, i64 0, i64 0, i32 0, null, metadata !1167, i32 0, i32 0} ; [ DW_TAG_subroutine_type ]
!1167 = metadata !{metadata !174, metadata !1137, metadata !1150, metadata !174}
!1168 = metadata !{i32 786478, i32 0, metadata !1108, metadata !"narrow", metadata !"narrow", metadata !"_ZNKSt5ctypeIcE6narrowEPKcS2_cPc", metadata !1090, i32 956, metadata !1169, i1 false, i1 false, i32 0, i32 0, null, i32 256, i1 false, null, null, i32 0, metadata !88, i32 956} ; [ DW_TAG_subprogram ]
!1169 = metadata !{i32 786453, i32 0, metadata !"", i32 0, i32 0, i64 0, i64 0, i64 0, i32 0, null, metadata !1170, i32 0, i32 0} ; [ DW_TAG_subroutine_type ]
!1170 = metadata !{metadata !1154, metadata !1137, metadata !1154, metadata !1154, metadata !174, metadata !213}
!1171 = metadata !{i32 786478, i32 0, metadata !1108, metadata !"table", metadata !"table", metadata !"_ZNKSt5ctypeIcE5tableEv", metadata !1090, i32 974, metadata !1172, i1 false, i1 false, i32 0, i32 0, null, i32 256, i1 false, null, null, i32 0, metadata !88, i32 974} ; [ DW_TAG_subprogram ]
!1172 = metadata !{i32 786453, i32 0, metadata !"", i32 0, i32 0, i64 0, i64 0, i64 0, i32 0, null, metadata !1173, i32 0, i32 0} ; [ DW_TAG_subroutine_type ]
!1173 = metadata !{metadata !1119, metadata !1137}
!1174 = metadata !{i32 786478, i32 0, metadata !1108, metadata !"classic_table", metadata !"classic_table", metadata !"_ZNSt5ctypeIcE13classic_tableEv", metadata !1090, i32 979, metadata !1175, i1 false, i1 false, i32 0, i32 0, null, i32 256, i1 false, null, null, i32 0, metadata !88, i32 979} ; [ DW_TAG_subprogram ]
!1175 = metadata !{i32 786453, i32 0, metadata !"", i32 0, i32 0, i64 0, i64 0, i64 0, i32 0, null, metadata !1176, i32 0, i32 0} ; [ DW_TAG_subroutine_type ]
!1176 = metadata !{metadata !1119}
!1177 = metadata !{i32 786478, i32 0, metadata !1108, metadata !"~ctype", metadata !"~ctype", metadata !"", metadata !1090, i32 989, metadata !1178, i1 false, i1 false, i32 1, i32 0, metadata !1108, i32 258, i1 false, null, null, i32 0, metadata !88, i32 989} ; [ DW_TAG_subprogram ]
!1178 = metadata !{i32 786453, i32 0, metadata !"", i32 0, i32 0, i64 0, i64 0, i64 0, i32 0, null, metadata !1179, i32 0, i32 0} ; [ DW_TAG_subroutine_type ]
!1179 = metadata !{null, metadata !1130}
!1180 = metadata !{i32 786478, i32 0, metadata !1108, metadata !"do_toupper", metadata !"do_toupper", metadata !"_ZNKSt5ctypeIcE10do_toupperEc", metadata !1090, i32 1005, metadata !1148, i1 false, i1 false, i32 1, i32 2, metadata !1108, i32 258, i1 false, null, null, i32 0, metadata !88, i32 1005} ; [ DW_TAG_subprogram ]
!1181 = metadata !{i32 786478, i32 0, metadata !1108, metadata !"do_toupper", metadata !"do_toupper", metadata !"_ZNKSt5ctypeIcE10do_toupperEPcPKc", metadata !1090, i32 1022, metadata !1152, i1 false, i1 false, i32 1, i32 3, metadata !1108, i32 258, i1 false, null, null, i32 0, metadata !88, i32 1022} ; [ DW_TAG_subprogram ]
!1182 = metadata !{i32 786478, i32 0, metadata !1108, metadata !"do_tolower", metadata !"do_tolower", metadata !"_ZNKSt5ctypeIcE10do_tolowerEc", metadata !1090, i32 1038, metadata !1148, i1 false, i1 false, i32 1, i32 4, metadata !1108, i32 258, i1 false, null, null, i32 0, metadata !88, i32 1038} ; [ DW_TAG_subprogram ]
!1183 = metadata !{i32 786478, i32 0, metadata !1108, metadata !"do_tolower", metadata !"do_tolower", metadata !"_ZNKSt5ctypeIcE10do_tolowerEPcPKc", metadata !1090, i32 1055, metadata !1152, i1 false, i1 false, i32 1, i32 5, metadata !1108, i32 258, i1 false, null, null, i32 0, metadata !88, i32 1055} ; [ DW_TAG_subprogram ]
!1184 = metadata !{i32 786478, i32 0, metadata !1108, metadata !"do_widen", metadata !"do_widen", metadata !"_ZNKSt5ctypeIcE8do_widenEc", metadata !1090, i32 1075, metadata !1160, i1 false, i1 false, i32 1, i32 6, metadata !1108, i32 258, i1 false, null, null, i32 0, metadata !88, i32 1075} ; [ DW_TAG_subprogram ]
!1185 = metadata !{i32 786478, i32 0, metadata !1108, metadata !"do_widen", metadata !"do_widen", metadata !"_ZNKSt5ctypeIcE8do_widenEPKcS2_Pc", metadata !1090, i32 1098, metadata !1163, i1 false, i1 false, i32 1, i32 7, metadata !1108, i32 258, i1 false, null, null, i32 0, metadata !88, i32 1098} ; [ DW_TAG_subprogram ]
!1186 = metadata !{i32 786478, i32 0, metadata !1108, metadata !"do_narrow", metadata !"do_narrow", metadata !"_ZNKSt5ctypeIcE9do_narrowEcc", metadata !1090, i32 1124, metadata !1166, i1 false, i1 false, i32 1, i32 8, metadata !1108, i32 258, i1 false, null, null, i32 0, metadata !88, i32 1124} ; [ DW_TAG_subprogram ]
!1187 = metadata !{i32 786478, i32 0, metadata !1108, metadata !"do_narrow", metadata !"do_narrow", metadata !"_ZNKSt5ctypeIcE9do_narrowEPKcS2_cPc", metadata !1090, i32 1150, metadata !1169, i1 false, i1 false, i32 1, i32 9, metadata !1108, i32 258, i1 false, null, null, i32 0, metadata !88, i32 1150} ; [ DW_TAG_subprogram ]
!1188 = metadata !{i32 786478, i32 0, metadata !1108, metadata !"_M_narrow_init", metadata !"_M_narrow_init", metadata !"_ZNKSt5ctypeIcE14_M_narrow_initEv", metadata !1090, i32 1158, metadata !1189, i1 false, i1 false, i32 0, i32 0, null, i32 257, i1 false, null, null, i32 0, metadata !88, i32 1158} ; [ DW_TAG_subprogram ]
!1189 = metadata !{i32 786453, i32 0, metadata !"", i32 0, i32 0, i64 0, i64 0, i64 0, i32 0, null, metadata !1190, i32 0, i32 0} ; [ DW_TAG_subroutine_type ]
!1190 = metadata !{null, metadata !1137}
!1191 = metadata !{i32 786478, i32 0, metadata !1108, metadata !"_M_widen_init", metadata !"_M_widen_init", metadata !"_ZNKSt5ctypeIcE13_M_widen_initEv", metadata !1090, i32 1159, metadata !1189, i1 false, i1 false, i32 0, i32 0, null, i32 257, i1 false, null, null, i32 0, metadata !88, i32 1159} ; [ DW_TAG_subprogram ]
!1192 = metadata !{i32 786470, null, metadata !"", null, i32 0, i64 0, i64 0, i64 0, i32 0, metadata !139} ; [ DW_TAG_const_type ]
!1193 = metadata !{i32 786484, i32 0, metadata !1108, metadata !"id", metadata !"id", metadata !"_ZNSt5ctypeIcE2idE", metadata !1090, i32 696, metadata !251, i32 0, i32 1, %"class.std::locale::id"* @_ZNSt5ctypeIcE2idE} ; [ DW_TAG_variable ]
!1194 = metadata !{i32 786484, i32 0, metadata !1195, metadata !"id", metadata !"id", metadata !"_ZNSt5ctypeIwE2idE", metadata !1090, i32 1198, metadata !251, i32 0, i32 1, %"class.std::locale::id"* @_ZNSt5ctypeIwE2idE} ; [ DW_TAG_variable ]
!1195 = metadata !{i32 786434, metadata !1109, metadata !"ctype<wchar_t>", metadata !1090, i32 1175, i64 10112, i64 32, i32 0, i32 0, null, metadata !1196, i32 0, metadata !128, metadata !1258} ; [ DW_TAG_class_type ]
!1196 = metadata !{metadata !1197, metadata !1260, metadata !1261, metadata !1262, metadata !1266, metadata !1269, metadata !1273, metadata !1278, metadata !1282, metadata !1285, metadata !1290, metadata !1293, metadata !1297, metadata !1302, metadata !1305, metadata !1306, metadata !1309, metadata !1313, metadata !1314, metadata !1315, metadata !1318, metadata !1321, metadata !1324, metadata !1327}
!1197 = metadata !{i32 786460, metadata !1195, null, metadata !1090, i32 0, i64 0, i64 0, i64 0, i32 0, metadata !1198} ; [ DW_TAG_inheritance ]
!1198 = metadata !{i32 786434, metadata !1109, metadata !"__ctype_abstract_base<wchar_t>", metadata !1090, i32 144, i64 64, i64 32, i32 0, i32 0, null, metadata !1199, i32 0, metadata !128, metadata !1258} ; [ DW_TAG_class_type ]
!1199 = metadata !{metadata !1200, metadata !1201, metadata !1202, metadata !1209, metadata !1214, metadata !1217, metadata !1218, metadata !1221, metadata !1225, metadata !1226, metadata !1227, metadata !1230, metadata !1233, metadata !1236, metadata !1239, metadata !1243, metadata !1246, metadata !1247, metadata !1248, metadata !1249, metadata !1250, metadata !1251, metadata !1252, metadata !1253, metadata !1254, metadata !1255, metadata !1256, metadata !1257}
!1200 = metadata !{i32 786460, metadata !1198, null, metadata !1090, i32 0, i64 0, i64 0, i64 0, i32 0, metadata !128} ; [ DW_TAG_inheritance ]
!1201 = metadata !{i32 786460, metadata !1198, null, metadata !1090, i32 0, i64 0, i64 0, i64 0, i32 0, metadata !1092} ; [ DW_TAG_inheritance ]
!1202 = metadata !{i32 786478, i32 0, metadata !1198, metadata !"is", metadata !"is", metadata !"_ZNKSt21__ctype_abstract_baseIwE2isEtw", metadata !1090, i32 162, metadata !1203, i1 false, i1 false, i32 0, i32 0, null, i32 256, i1 false, null, null, i32 0, metadata !88, i32 162} ; [ DW_TAG_subprogram ]
!1203 = metadata !{i32 786453, i32 0, metadata !"", i32 0, i32 0, i64 0, i64 0, i64 0, i32 0, null, metadata !1204, i32 0, i32 0} ; [ DW_TAG_subroutine_type ]
!1204 = metadata !{metadata !238, metadata !1205, metadata !1096, metadata !1207}
!1205 = metadata !{i32 786447, i32 0, metadata !"", i32 0, i32 0, i64 32, i64 32, i64 0, i32 64, metadata !1206} ; [ DW_TAG_pointer_type ]
!1206 = metadata !{i32 786470, null, metadata !"", null, i32 0, i64 0, i64 0, i64 0, i32 0, metadata !1198} ; [ DW_TAG_const_type ]
!1207 = metadata !{i32 786454, metadata !1198, metadata !"char_type", metadata !1090, i32 149, i64 0, i64 0, i64 0, i32 0, metadata !1208} ; [ DW_TAG_typedef ]
!1208 = metadata !{i32 786468, null, metadata !"wchar_t", null, i32 0, i64 32, i64 32, i64 0, i32 0, i32 5} ; [ DW_TAG_base_type ]
!1209 = metadata !{i32 786478, i32 0, metadata !1198, metadata !"is", metadata !"is", metadata !"_ZNKSt21__ctype_abstract_baseIwE2isEPKwS2_Pt", metadata !1090, i32 179, metadata !1210, i1 false, i1 false, i32 0, i32 0, null, i32 256, i1 false, null, null, i32 0, metadata !88, i32 179} ; [ DW_TAG_subprogram ]
!1210 = metadata !{i32 786453, i32 0, metadata !"", i32 0, i32 0, i64 0, i64 0, i64 0, i32 0, null, metadata !1211, i32 0, i32 0} ; [ DW_TAG_subroutine_type ]
!1211 = metadata !{metadata !1212, metadata !1205, metadata !1212, metadata !1212, metadata !1142}
!1212 = metadata !{i32 786447, null, metadata !"", null, i32 0, i64 32, i64 32, i64 0, i32 0, metadata !1213} ; [ DW_TAG_pointer_type ]
!1213 = metadata !{i32 786470, null, metadata !"", null, i32 0, i64 0, i64 0, i64 0, i32 0, metadata !1207} ; [ DW_TAG_const_type ]
!1214 = metadata !{i32 786478, i32 0, metadata !1198, metadata !"scan_is", metadata !"scan_is", metadata !"_ZNKSt21__ctype_abstract_baseIwE7scan_isEtPKwS2_", metadata !1090, i32 195, metadata !1215, i1 false, i1 false, i32 0, i32 0, null, i32 256, i1 false, null, null, i32 0, metadata !88, i32 195} ; [ DW_TAG_subprogram ]
!1215 = metadata !{i32 786453, i32 0, metadata !"", i32 0, i32 0, i64 0, i64 0, i64 0, i32 0, null, metadata !1216, i32 0, i32 0} ; [ DW_TAG_subroutine_type ]
!1216 = metadata !{metadata !1212, metadata !1205, metadata !1096, metadata !1212, metadata !1212}
!1217 = metadata !{i32 786478, i32 0, metadata !1198, metadata !"scan_not", metadata !"scan_not", metadata !"_ZNKSt21__ctype_abstract_baseIwE8scan_notEtPKwS2_", metadata !1090, i32 211, metadata !1215, i1 false, i1 false, i32 0, i32 0, null, i32 256, i1 false, null, null, i32 0, metadata !88, i32 211} ; [ DW_TAG_subprogram ]
!1218 = metadata !{i32 786478, i32 0, metadata !1198, metadata !"toupper", metadata !"toupper", metadata !"_ZNKSt21__ctype_abstract_baseIwE7toupperEw", metadata !1090, i32 225, metadata !1219, i1 false, i1 false, i32 0, i32 0, null, i32 256, i1 false, null, null, i32 0, metadata !88, i32 225} ; [ DW_TAG_subprogram ]
!1219 = metadata !{i32 786453, i32 0, metadata !"", i32 0, i32 0, i64 0, i64 0, i64 0, i32 0, null, metadata !1220, i32 0, i32 0} ; [ DW_TAG_subroutine_type ]
!1220 = metadata !{metadata !1207, metadata !1205, metadata !1207}
!1221 = metadata !{i32 786478, i32 0, metadata !1198, metadata !"toupper", metadata !"toupper", metadata !"_ZNKSt21__ctype_abstract_baseIwE7toupperEPwPKw", metadata !1090, i32 240, metadata !1222, i1 false, i1 false, i32 0, i32 0, null, i32 256, i1 false, null, null, i32 0, metadata !88, i32 240} ; [ DW_TAG_subprogram ]
!1222 = metadata !{i32 786453, i32 0, metadata !"", i32 0, i32 0, i64 0, i64 0, i64 0, i32 0, null, metadata !1223, i32 0, i32 0} ; [ DW_TAG_subroutine_type ]
!1223 = metadata !{metadata !1212, metadata !1205, metadata !1224, metadata !1212}
!1224 = metadata !{i32 786447, null, metadata !"", null, i32 0, i64 32, i64 32, i64 0, i32 0, metadata !1207} ; [ DW_TAG_pointer_type ]
!1225 = metadata !{i32 786478, i32 0, metadata !1198, metadata !"tolower", metadata !"tolower", metadata !"_ZNKSt21__ctype_abstract_baseIwE7tolowerEw", metadata !1090, i32 254, metadata !1219, i1 false, i1 false, i32 0, i32 0, null, i32 256, i1 false, null, null, i32 0, metadata !88, i32 254} ; [ DW_TAG_subprogram ]
!1226 = metadata !{i32 786478, i32 0, metadata !1198, metadata !"tolower", metadata !"tolower", metadata !"_ZNKSt21__ctype_abstract_baseIwE7tolowerEPwPKw", metadata !1090, i32 269, metadata !1222, i1 false, i1 false, i32 0, i32 0, null, i32 256, i1 false, null, null, i32 0, metadata !88, i32 269} ; [ DW_TAG_subprogram ]
!1227 = metadata !{i32 786478, i32 0, metadata !1198, metadata !"widen", metadata !"widen", metadata !"_ZNKSt21__ctype_abstract_baseIwE5widenEc", metadata !1090, i32 286, metadata !1228, i1 false, i1 false, i32 0, i32 0, null, i32 256, i1 false, null, null, i32 0, metadata !88, i32 286} ; [ DW_TAG_subprogram ]
!1228 = metadata !{i32 786453, i32 0, metadata !"", i32 0, i32 0, i64 0, i64 0, i64 0, i32 0, null, metadata !1229, i32 0, i32 0} ; [ DW_TAG_subroutine_type ]
!1229 = metadata !{metadata !1207, metadata !1205, metadata !174}
!1230 = metadata !{i32 786478, i32 0, metadata !1198, metadata !"widen", metadata !"widen", metadata !"_ZNKSt21__ctype_abstract_baseIwE5widenEPKcS2_Pw", metadata !1090, i32 305, metadata !1231, i1 false, i1 false, i32 0, i32 0, null, i32 256, i1 false, null, null, i32 0, metadata !88, i32 305} ; [ DW_TAG_subprogram ]
!1231 = metadata !{i32 786453, i32 0, metadata !"", i32 0, i32 0, i64 0, i64 0, i64 0, i32 0, null, metadata !1232, i32 0, i32 0} ; [ DW_TAG_subroutine_type ]
!1232 = metadata !{metadata !172, metadata !1205, metadata !172, metadata !172, metadata !1224}
